Product: MDK-ARM Professional 5.10
Component: ARM Compiler 5.04 update 1 (build 49)
Tool: armlink [5040049]

==============================================================================

Section Cross References

    main.o(.text) refers to _printf_percent.o(.ARM.Collect$$_printf_percent$$00000000) for _printf_percent
    main.o(.text) refers to _printf_f.o(.ARM.Collect$$_printf_percent$$00000003) for _printf_f
    main.o(.text) refers to printf1.o(x$fpl$printf1) for _printf_fp_dec
    main.o(.text) refers to daddsub_clz.o(x$fpl$dadd) for __aeabi_dadd
    main.o(.text) refers to __2printf.o(.text) for __2printf
    main.o(.text) refers to retarget.o(i.mkdir) for mkdir
    main.o(.text) refers to fopen.o(.text) for fopen
    main.o(.text) refers to error.o(i.error) for error
    main.o(.text) refers to FunctionPointer.o(i._ZN4mbed15FunctionPointer6attachEPFvvE) for mbed::FunctionPointer::attach(void(*)())
    main.o(.text) refers to Ticker.o(i._ZN4mbed6Ticker5setupEy) for mbed::Ticker::setup(unsigned long long)
    main.o(.text) refers to __2fprintf.o(.text) for __2fprintf
    main.o(.text) refers to wait_api.o(i.wait_us) for wait_us
    main.o(.text) refers to dleqf.o(x$fpl$dleqf) for __aeabi_cdcmple
    main.o(.text) refers to fclose.o(.text) for fclose
    main.o(.text) refers to Ticker.o(i._ZN4mbed6Ticker6detachEv) for mbed::Ticker::detach()
    main.o(.text) refers to sdfilesystem.o(.text) for SDFileSystem::SDFileSystem(PinName, PinName, PinName, PinName, const char*)
    main.o(.text) refers to aeabi_atexit.o(i.__aeabi_atexit) for __aeabi_atexit
    main.o(.text) refers to TimerEvent.o(i._ZN4mbed10TimerEventC2Ev) for mbed::TimerEvent::TimerEvent__sub_object()
    main.o(.text) refers to FunctionPointer.o(i._ZN4mbed15FunctionPointerC1EPFvvE) for mbed::FunctionPointer::FunctionPointer(void(*)())
    main.o(.text) refers to main.o(.data) for timer
    main.o(.text) refers to main.o(.bss) for ticker
    main.o(.text) refers to main.o(.conststring) for .conststring
    main.o(.text) refers to main.o(i._ZN12SDFileSystemD1Ev) for SDFileSystem::~SDFileSystem()
    main.o(.text) refers to Ticker.o(.constdata__ZTVN4mbed6TickerE) for vtable for mbed::Ticker
    main.o(.text) refers to Ticker.o(i._ZN4mbed6TickerD1Ev) for mbed::Ticker::~Ticker()
    main.o(.ARM.exidx) refers to main.o(.text) for .text
    main.o(.init_array) refers to main.o(.text) for __sti___8_main_cpp_sd
    main.o(.init_array) refers to init_aeabi.o(.text) for __cpp_initialize__aeabi_
    sdfilesystem.o(.text) refers to c89vfprintf.o(.text) for __c89vfprintf
    sdfilesystem.o(.text) refers to fatfilesystem.o(.text) for FATFileSystem::FATFileSystem__sub_object(const char*)
    sdfilesystem.o(.text) refers to SPI.o(i._ZN4mbed3SPIC1E7PinNameS1_S1_S1_) for mbed::SPI::SPI(PinName, PinName, PinName, PinName)
    sdfilesystem.o(.text) refers to rt_memclr_w.o(.text) for __aeabi_memclr4
    sdfilesystem.o(.text) refers to gpio.o(i.gpio_init_out) for gpio_init_out
    sdfilesystem.o(.text) refers to sdfilesystem.o(i._ZN4mbed10DigitalOutaSEi) for mbed::DigitalOut::operator =(int)
    sdfilesystem.o(.text) refers to SPI.o(i._ZN4mbed3SPI5writeEi) for mbed::SPI::write(int)
    sdfilesystem.o(.text) refers to stdio_streams.o(.bss) for __stderr
    sdfilesystem.o(.text) refers to sdfilesystem.o(.constdata__ZTV12SDFileSystem) for vtable for SDFileSystem
    sdfilesystem.o(.text) refers to wait_api.o(i.wait_ms) for wait_ms
    sdfilesystem.o(.text) refers to SPI.o(i._ZN4mbed3SPI9frequencyEi) for mbed::SPI::frequency(int)
    sdfilesystem.o(.ARM.exidx) refers to sdfilesystem.o(.text) for .text
    fatfilesystem.o(.text) refers to _printf_percent.o(.ARM.Collect$$_printf_percent$$00000000) for _printf_percent
    fatfilesystem.o(.text) refers to _printf_d.o(.ARM.Collect$$_printf_percent$$00000009) for _printf_d
    fatfilesystem.o(.text) refers to _printf_s.o(.ARM.Collect$$_printf_percent$$00000014) for _printf_s
    fatfilesystem.o(.text) refers to _printf_dec.o(.text) for _printf_int_dec
    fatfilesystem.o(.text) refers to _printf_str.o(.text) for _printf_str
    fatfilesystem.o(.text) refers to c89vfprintf.o(.text) for __c89vfprintf
    fatfilesystem.o(.text) refers to rtc_time.o(i.time) for time
    fatfilesystem.o(.text) refers to localtime.o(.text) for localtime
    fatfilesystem.o(.text) refers to FileSystemLike.o(i._ZN4mbed14FileSystemLikeC2EPKc) for mbed::FileSystemLike::FileSystemLike__sub_object(const char*)
    fatfilesystem.o(.text) refers to ff.o(.text) for f_mount
    fatfilesystem.o(.text) refers to error.o(i.error) for error
    fatfilesystem.o(.text) refers to FileSystemLike.o(i._ZN4mbed14FileSystemLikeD2Ev) for mbed::FileSystemLike::~FileSystemLike__sub_object()
    fatfilesystem.o(.text) refers to delete.o(i._ZdlPv) for operator delete (void*)
    fatfilesystem.o(.text) refers to __2sprintf.o(.text) for __2sprintf
    fatfilesystem.o(.text) refers to new.o(i._Znwj) for operator new(unsigned)
    fatfilesystem.o(.text) refers to rt_memcpy_w.o(.text) for __aeabi_memcpy4
    fatfilesystem.o(.text) refers to fatfilehandle.o(.text) for FATFileHandle::FATFileHandle(FIL)
    fatfilesystem.o(.text) refers to fatdirhandle.o(.text) for FATDirHandle::FATDirHandle(const FATFS_DIR&)
    fatfilesystem.o(.text) refers to stdio_streams.o(.bss) for __stderr
    fatfilesystem.o(.text) refers to fatfilesystem.o(.constdata__ZTV13FATFileSystem) for vtable for FATFileSystem
    fatfilesystem.o(.text) refers to fatfilesystem.o(.data) for FATFileSystem::_ffs
    fatfilesystem.o(.ARM.exidx) refers to fatfilesystem.o(.text) for .text
    fatfilehandle.o(.text) refers to c89vfprintf.o(.text) for __c89vfprintf
    fatfilehandle.o(.text) refers to rt_memcpy_w.o(.text) for __aeabi_memcpy4
    fatfilehandle.o(.text) refers to ff.o(.text) for f_close
    fatfilehandle.o(.text) refers to stdio_streams.o(.bss) for __stderr
    fatfilehandle.o(.text) refers to retarget.o(.constdata__ZTVN4mbed10FileHandleE) for vtable for mbed::FileHandle
    fatfilehandle.o(.text) refers to fatfilehandle.o(.constdata__ZTV13FATFileHandle) for vtable for FATFileHandle
    fatfilehandle.o(.ARM.exidx) refers to fatfilehandle.o(.text) for .text
    fatdirhandle.o(.text) refers to rt_memcpy_w.o(.text) for __aeabi_memcpy4
    fatdirhandle.o(.text) refers to ff.o(.text) for f_readdir
    fatdirhandle.o(.text) refers to rt_memcpy_v6.o(.text) for __aeabi_memcpy
    fatdirhandle.o(.text) refers to fatdirhandle.o(.constdata__ZTVN4mbed9DirHandleE) for vtable for mbed::DirHandle
    fatdirhandle.o(.text) refers to fatdirhandle.o(.constdata__ZTV12FATDirHandle) for vtable for FATDirHandle
    fatdirhandle.o(.ARM.exidx) refers to fatdirhandle.o(.text) for .text
    diskio.o(.text) refers to c89vfprintf.o(.text) for __c89vfprintf
    diskio.o(.text) refers to stdio_streams.o(.bss) for __stderr
    diskio.o(.text) refers to fatfilesystem.o(.data) for FATFileSystem::_ffs
    diskio.o(.ARM.exidx) refers to diskio.o(.text) for .text
    ccsbcs.o(.text) refers to ccsbcs.o(.constdata) for Tbl
    ccsbcs.o(.ARM.exidx) refers to ccsbcs.o(.text) for .text
    ff.o(.text) refers to diskio.o(.text) for disk_write(unsigned char, const unsigned char*, unsigned long, unsigned char)
    ff.o(.text) refers to ccsbcs.o(.text) for ff_wtoupper
    ff.o(.text) refers to ff.o(.constdata) for LfnOfs
    ff.o(.text) refers to ff.o(.data) for FatFs
    ff.o(.text) refers to ff.o(.bss) for LfnBuf
    ff.o(.text) refers to fatfilesystem.o(.text) for get_fattime
    ff.o(.ARM.exidx) refers to ff.o(.text) for .text
    sys.o(i.__user_setup_stackheap) refers to sys_helper.o(i.__reserved_stack_size) for __reserved_stack_size
    sys.o(.ARM.exidx) refers to sys.o(i.__user_setup_stackheap) for i.__user_setup_stackheap
    cmsis_nvic.o(i.NVIC_SetVector) refers to rt_memmove_w.o(.text) for __aeabi_memmove4
    sys_helper.o(.ARM.exidx) refers to sys_helper.o(i.__reserved_stack_size) for i.__reserved_stack_size
    startup_LPC407x_8x_177x_8x.o(RESET) refers to startup_LPC407x_8x_177x_8x.o(.text) for Reset_Handler
    startup_LPC407x_8x_177x_8x.o(.text) refers to system_LPC407x_8x_177x_8x.o(i.SystemInit) for SystemInit
    startup_LPC407x_8x_177x_8x.o(.text) refers to __main.o(!!!main) for __main
    system_LPC407x_8x_177x_8x.o(i.SystemCoreClockUpdate) refers to system_LPC407x_8x_177x_8x.o(.data) for .data
    system_LPC407x_8x_177x_8x.o(i.SystemInit) refers to system_LPC407x_8x_177x_8x.o(i.SystemCoreClockUpdate) for SystemCoreClockUpdate
    board.o(i.mbed_die) refers to gpio.o(i.gpio_init_out) for gpio_init_out
    board.o(i.mbed_die) refers to assert.o(i.mbed_assert_internal) for mbed_assert_internal
    board.o(i.mbed_die) refers to wait_api.o(i.wait_ms) for wait_ms
    board.o(i.mbed_die) refers to board.o(.constdata) for .constdata
    retarget.o(i.$Sub$$main) refers to retarget.o(i.mbed_sdk_init) for mbed_sdk_init
    retarget.o(i.$Sub$$main) refers to retarget.o(i.mbed_main) for mbed_main
    retarget.o(i.$Sub$$main) refers to main.o(.text) for $Super$$main
    retarget.o(i._ZN4mbed10FileHandleD0Ev) refers to delete.o(i._ZdlPv) for operator delete (void*)
    retarget.o(i._ZN4mbed10FileHandleD0Ev) refers to retarget.o(.constdata__ZTVN4mbed10FileHandleE) for vtable for mbed::FileHandle
    retarget.o(i._ZN4mbed10FileHandleD0Ev) refers to retarget.o(.bss) for .bss
    retarget.o(i._ZN4mbed10FileHandleD2Ev) refers to retarget.o(.constdata__ZTVN4mbed10FileHandleE) for vtable for mbed::FileHandle
    retarget.o(i._ZN4mbed10FileHandleD2Ev) refers to retarget.o(.bss) for .bss
    retarget.o(i._sys_close) refers to retarget.o(.bss) for .bss
    retarget.o(i._sys_ensure) refers to retarget.o(.bss) for .bss
    retarget.o(i._sys_flen) refers to retarget.o(.bss) for .bss
    retarget.o(i._sys_istty) refers to retarget.o(.bss) for .bss
    retarget.o(i._sys_open) refers to _scanf_int.o(.text) for _scanf_int
    retarget.o(i._sys_open) refers to strcmpv7m.o(.text) for strcmp
    retarget.o(i._sys_open) refers to serial_api.o(i.serial_init) for serial_init
    retarget.o(i._sys_open) refers to FilePath.o(i._ZN4mbed8FilePathC1EPKc) for mbed::FilePath::FilePath(const char*)
    retarget.o(i._sys_open) refers to FilePath.o(i._ZN4mbed8FilePath6existsEv) for mbed::FilePath::exists()
    retarget.o(i._sys_open) refers to FilePath.o(i._ZN4mbed8FilePath6isFileEv) for mbed::FilePath::isFile()
    retarget.o(i._sys_open) refers to FilePath.o(i._ZN4mbed8FilePath4fileEv) for mbed::FilePath::file()
    retarget.o(i._sys_open) refers to __0sscanf.o(.text) for __0sscanf
    retarget.o(i._sys_open) refers to FilePath.o(i._ZN4mbed8FilePath10fileSystemEv) for mbed::FilePath::fileSystem()
    retarget.o(i._sys_open) refers to FilePath.o(i._ZN4mbed8FilePath8fileNameEv) for mbed::FilePath::fileName()
    retarget.o(i._sys_open) refers to retarget.o(.constdata) for .constdata
    retarget.o(i._sys_open) refers to serial_api.o(.data) for stdio_uart_inited
    retarget.o(i._sys_open) refers to retarget.o(.bss) for .bss
    retarget.o(i._sys_read) refers to serial_api.o(i.serial_init) for serial_init
    retarget.o(i._sys_read) refers to serial_api.o(i.serial_getc) for serial_getc
    retarget.o(i._sys_read) refers to serial_api.o(.data) for stdio_uart_inited
    retarget.o(i._sys_read) refers to retarget.o(.bss) for .bss
    retarget.o(i._sys_seek) refers to retarget.o(.bss) for .bss
    retarget.o(i._sys_write) refers to serial_api.o(i.serial_init) for serial_init
    retarget.o(i._sys_write) refers to serial_api.o(i.serial_putc) for serial_putc
    retarget.o(i._sys_write) refers to serial_api.o(.data) for stdio_uart_inited
    retarget.o(i._sys_write) refers to retarget.o(.bss) for .bss
    retarget.o(i.mkdir) refers to FilePath.o(i._ZN4mbed8FilePathC1EPKc) for mbed::FilePath::FilePath(const char*)
    retarget.o(i.mkdir) refers to FilePath.o(i._ZN4mbed8FilePath10fileSystemEv) for mbed::FilePath::fileSystem()
    retarget.o(i.mkdir) refers to FilePath.o(i._ZN4mbed8FilePath8fileNameEv) for mbed::FilePath::fileName()
    retarget.o(i.opendir) refers to FilePath.o(i._ZN4mbed8FilePathC1EPKc) for mbed::FilePath::FilePath(const char*)
    retarget.o(i.opendir) refers to FilePath.o(i._ZN4mbed8FilePath10fileSystemEv) for mbed::FilePath::fileSystem()
    retarget.o(i.opendir) refers to FilePath.o(i._ZN4mbed8FilePath8fileNameEv) for mbed::FilePath::fileName()
    retarget.o(i.opendir) refers to FileSystemLike.o(i._ZN4mbed14FileSystemLike7opendirEv) for mbed::FileSystemLike::opendir()
    retarget.o(i.remove) refers to FilePath.o(i._ZN4mbed8FilePathC1EPKc) for mbed::FilePath::FilePath(const char*)
    retarget.o(i.remove) refers to FilePath.o(i._ZN4mbed8FilePath10fileSystemEv) for mbed::FilePath::fileSystem()
    retarget.o(i.remove) refers to FilePath.o(i._ZN4mbed8FilePath8fileNameEv) for mbed::FilePath::fileName()
    retarget.o(i.rename) refers to FilePath.o(i._ZN4mbed8FilePathC1EPKc) for mbed::FilePath::FilePath(const char*)
    retarget.o(i.rename) refers to FilePath.o(i._ZN4mbed8FilePath10fileSystemEv) for mbed::FilePath::fileSystem()
    retarget.o(i.rename) refers to FilePath.o(i._ZN4mbed8FilePath8fileNameEv) for mbed::FilePath::fileName()
    retarget.o(.ARM.exidx) refers to retarget.o(i._sys_open) for i._sys_open
    retarget.o(.ARM.exidx) refers to retarget.o(i._sys_close) for i._sys_close
    retarget.o(.ARM.exidx) refers to retarget.o(i._sys_write) for i._sys_write
    retarget.o(.ARM.exidx) refers to retarget.o(i._sys_read) for i._sys_read
    retarget.o(.ARM.exidx) refers to retarget.o(i._sys_istty) for i._sys_istty
    retarget.o(.ARM.exidx) refers to retarget.o(i._sys_seek) for i._sys_seek
    retarget.o(.ARM.exidx) refers to retarget.o(i._sys_ensure) for i._sys_ensure
    retarget.o(.ARM.exidx) refers to retarget.o(i._sys_flen) for i._sys_flen
    retarget.o(.ARM.exidx) refers to retarget.o(i.remove) for i.remove
    retarget.o(.ARM.exidx) refers to retarget.o(i.rename) for i.rename
    retarget.o(.ARM.exidx) refers to retarget.o(i.tmpnam) for i.tmpnam
    retarget.o(.ARM.exidx) refers to retarget.o(i.tmpfile) for i.tmpfile
    retarget.o(.ARM.exidx) refers to retarget.o(i._sys_command_string) for i._sys_command_string
    retarget.o(.ARM.exidx) refers to retarget.o(i.opendir) for i.opendir
    retarget.o(.ARM.exidx) refers to retarget.o(i.readdir) for i.readdir
    retarget.o(.ARM.exidx) refers to retarget.o(i.closedir) for i.closedir
    retarget.o(.ARM.exidx) refers to retarget.o(i.rewinddir) for i.rewinddir
    retarget.o(.ARM.exidx) refers to retarget.o(i.telldir) for i.telldir
    retarget.o(.ARM.exidx) refers to retarget.o(i.seekdir) for i.seekdir
    retarget.o(.ARM.exidx) refers to retarget.o(i.mkdir) for i.mkdir
    retarget.o(.ARM.exidx) refers to retarget.o(i.mbed_main) for i.mbed_main
    retarget.o(.ARM.exidx) refers to retarget.o(i.mbed_sdk_init) for i.mbed_sdk_init
    retarget.o(.ARM.exidx) refers to retarget.o(i.$Sub$$main) for i.$Sub$$main
    retarget.o(.ARM.exidx) refers to retarget.o(i._ZN4mbed10FileHandleD2Ev) for i._ZN4mbed10FileHandleD2Ev
    retarget.o(.ARM.exidx) refers to retarget.o(i._ZN4mbed10FileHandleD0Ev) for i._ZN4mbed10FileHandleD0Ev
    serial_api.o(i.serial_baud) refers to system_LPC407x_8x_177x_8x.o(.data) for PeripheralClock
    serial_api.o(i.serial_format) refers to assert.o(i.mbed_assert_internal) for mbed_assert_internal
    serial_api.o(i.serial_format) refers to serial_api.o(.constdata) for .constdata
    serial_api.o(i.serial_free) refers to serial_api.o(.bss) for .bss
    serial_api.o(i.serial_init) refers to pinmap_common.o(i.pinmap_peripheral) for pinmap_peripheral
    serial_api.o(i.serial_init) refers to pinmap_common.o(i.pinmap_merge) for pinmap_merge
    serial_api.o(i.serial_init) refers to assert.o(i.mbed_assert_internal) for mbed_assert_internal
    serial_api.o(i.serial_init) refers to serial_api.o(i.serial_baud) for serial_baud
    serial_api.o(i.serial_init) refers to serial_api.o(i.serial_format) for serial_format
    serial_api.o(i.serial_init) refers to pinmap_common.o(i.pinmap_pinout) for pinmap_pinout
    serial_api.o(i.serial_init) refers to pinmap.o(i.pin_mode) for pin_mode
    serial_api.o(i.serial_init) refers to serial_api.o(.constdata) for .constdata
    serial_api.o(i.serial_init) refers to serial_api.o(.data) for .data
    serial_api.o(i.serial_irq_handler) refers to serial_api.o(.data) for .data
    serial_api.o(i.serial_irq_handler) refers to serial_api.o(.bss) for .bss
    serial_api.o(i.serial_irq_set) refers to cmsis_nvic.o(i.NVIC_SetVector) for NVIC_SetVector
    serial_api.o(i.serial_irq_set) refers to serial_api.o(i.uart2_irq) for uart2_irq
    serial_api.o(i.serial_irq_set) refers to serial_api.o(i.uart0_irq) for uart0_irq
    serial_api.o(i.serial_irq_set) refers to serial_api.o(i.uart1_irq) for uart1_irq
    serial_api.o(i.serial_irq_set) refers to serial_api.o(i.uart3_irq) for uart3_irq
    serial_api.o(i.serial_irq_set) refers to serial_api.o(i.uart4_irq) for uart4_irq
    serial_api.o(i.serial_pinout_tx) refers to pinmap_common.o(i.pinmap_pinout) for pinmap_pinout
    serial_api.o(i.serial_pinout_tx) refers to serial_api.o(.constdata) for .constdata
    serial_api.o(i.uart0_irq) refers to serial_api.o(.bss) for .bss
    serial_api.o(i.uart0_irq) refers to serial_api.o(.data) for .data
    serial_api.o(i.uart1_irq) refers to serial_api.o(.bss) for .bss
    serial_api.o(i.uart1_irq) refers to serial_api.o(.data) for .data
    serial_api.o(i.uart2_irq) refers to serial_api.o(.bss) for .bss
    serial_api.o(i.uart2_irq) refers to serial_api.o(.data) for .data
    serial_api.o(i.uart3_irq) refers to serial_api.o(.bss) for .bss
    serial_api.o(i.uart3_irq) refers to serial_api.o(.data) for .data
    serial_api.o(i.uart4_irq) refers to serial_api.o(.bss) for .bss
    serial_api.o(i.uart4_irq) refers to serial_api.o(.data) for .data
    FunctionPointer.o(.ARM.exidx) refers to FunctionPointer.o(i._ZN4mbed15FunctionPointer6attachEPFvvE) for i._ZN4mbed15FunctionPointer6attachEPFvvE
    FunctionPointer.o(.ARM.exidx) refers to FunctionPointer.o(i._ZN4mbed15FunctionPointerC1EPFvvE) for i._ZN4mbed15FunctionPointerC1EPFvvE
    FunctionPointer.o(.ARM.exidx) refers to FunctionPointer.o(i._ZN4mbed15FunctionPointer4callEv) for i._ZN4mbed15FunctionPointer4callEv
    FileSystemLike.o(i._ZN4mbed14FileSystemLike7opendirEv) refers to new.o(i._Znwj) for operator new(unsigned)
    FileSystemLike.o(i._ZN4mbed14FileSystemLike7opendirEv) refers to rt_memclr_w.o(.text) for __aeabi_memclr4
    FileSystemLike.o(i._ZN4mbed14FileSystemLike7opendirEv) refers to FileSystemLike.o(.constdata__ZTVN4mbed13BaseDirHandleE) for vtable for mbed::BaseDirHandle
    FileSystemLike.o(i._ZN4mbed14FileSystemLikeC2EPKc) refers to FileBase.o(i._ZN4mbed8FileBaseC1EPKcNS_8PathTypeE) for mbed::FileBase::FileBase(const char*, mbed::PathType)
    FileSystemLike.o(i._ZN4mbed14FileSystemLikeC2EPKc) refers to FileSystemLike.o(.constdata__ZTVN4mbed14FileSystemLikeE) for vtable for mbed::FileSystemLike
    FileSystemLike.o(i._ZN4mbed14FileSystemLikeD0Ev) refers to FileBase.o(i._ZN4mbed8FileBaseD1Ev) for mbed::FileBase::~FileBase()
    FileSystemLike.o(i._ZN4mbed14FileSystemLikeD0Ev) refers to delete.o(i._ZdlPv) for operator delete (void*)
    FileSystemLike.o(i._ZN4mbed14FileSystemLikeD2Ev) refers to FileBase.o(i._ZN4mbed8FileBaseD1Ev) for mbed::FileBase::~FileBase()
    FileSystemLike.o(.ARM.exidx) refers to FileSystemLike.o(i._ZN4mbed14FileSystemLikeC2EPKc) for i._ZN4mbed14FileSystemLikeC2EPKc
    FileSystemLike.o(.ARM.exidx) refers to FileSystemLike.o(i._ZN4mbed14FileSystemLikeD2Ev) for i._ZN4mbed14FileSystemLikeD2Ev
    FileSystemLike.o(.ARM.exidx) refers to FileSystemLike.o(i._ZN4mbed14FileSystemLikeD0Ev) for i._ZN4mbed14FileSystemLikeD0Ev
    FileSystemLike.o(.ARM.exidx) refers to FileSystemLike.o(i._ZN4mbed14FileSystemLike7opendirEv) for i._ZN4mbed14FileSystemLike7opendirEv
    FilePath.o(i._ZN4mbed8FilePath10fileSystemEv) refers to FileBase.o(i._ZN4mbed8FileBase11getPathTypeEv) for mbed::FileBase::getPathType()
    FilePath.o(i._ZN4mbed8FilePath12isFileSystemEv) refers to FileBase.o(i._ZN4mbed8FileBase11getPathTypeEv) for mbed::FileBase::getPathType()
    FilePath.o(i._ZN4mbed8FilePath4fileEv) refers to FileBase.o(i._ZN4mbed8FileBase11getPathTypeEv) for mbed::FileBase::getPathType()
    FilePath.o(i._ZN4mbed8FilePath6isFileEv) refers to FileBase.o(i._ZN4mbed8FileBase11getPathTypeEv) for mbed::FileBase::getPathType()
    FilePath.o(i._ZN4mbed8FilePathC1EPKc) refers to FileBase.o(i._ZN4mbed8FileBase6lookupEPKcj) for mbed::FileBase::lookup(const char*, unsigned)
    FilePath.o(.ARM.exidx) refers to FilePath.o(i._ZN4mbed8FilePathC1EPKc) for i._ZN4mbed8FilePathC1EPKc
    FilePath.o(.ARM.exidx) refers to FilePath.o(i._ZN4mbed8FilePath8fileNameEv) for i._ZN4mbed8FilePath8fileNameEv
    FilePath.o(.ARM.exidx) refers to FilePath.o(i._ZN4mbed8FilePath12isFileSystemEv) for i._ZN4mbed8FilePath12isFileSystemEv
    FilePath.o(.ARM.exidx) refers to FilePath.o(i._ZN4mbed8FilePath10fileSystemEv) for i._ZN4mbed8FilePath10fileSystemEv
    FilePath.o(.ARM.exidx) refers to FilePath.o(i._ZN4mbed8FilePath6isFileEv) for i._ZN4mbed8FilePath6isFileEv
    FilePath.o(.ARM.exidx) refers to FilePath.o(i._ZN4mbed8FilePath4fileEv) for i._ZN4mbed8FilePath4fileEv
    FilePath.o(.ARM.exidx) refers to FilePath.o(i._ZN4mbed8FilePath6existsEv) for i._ZN4mbed8FilePath6existsEv
    Ticker.o(i._ZN4mbed6Ticker5setupEy) refers to TimerEvent.o(i._ZN4mbed10TimerEvent6removeEv) for mbed::TimerEvent::remove()
    Ticker.o(i._ZN4mbed6Ticker5setupEy) refers to us_ticker.o(i.us_ticker_read) for us_ticker_read
    Ticker.o(i._ZN4mbed6Ticker5setupEy) refers to TimerEvent.o(i._ZN4mbed10TimerEvent6insertEy) for mbed::TimerEvent::insert(unsigned long long)
    Ticker.o(i._ZN4mbed6Ticker6detachEv) refers to TimerEvent.o(i._ZN4mbed10TimerEvent6removeEv) for mbed::TimerEvent::remove()
    Ticker.o(i._ZN4mbed6Ticker6detachEv) refers to FunctionPointer.o(i._ZN4mbed15FunctionPointer6attachEPFvvE) for mbed::FunctionPointer::attach(void(*)())
    Ticker.o(i._ZN4mbed6Ticker7handlerEv) refers to TimerEvent.o(i._ZN4mbed10TimerEvent6insertEy) for mbed::TimerEvent::insert(unsigned long long)
    Ticker.o(i._ZN4mbed6Ticker7handlerEv) refers to FunctionPointer.o(i._ZN4mbed15FunctionPointer4callEv) for mbed::FunctionPointer::call()
    Ticker.o(.ARM.exidx) refers to Ticker.o(i._ZN4mbed6Ticker6detachEv) for i._ZN4mbed6Ticker6detachEv
    Ticker.o(.ARM.exidx) refers to Ticker.o(i._ZN4mbed6Ticker5setupEy) for i._ZN4mbed6Ticker5setupEy
    Ticker.o(.ARM.exidx) refers to Ticker.o(i._ZN4mbed6Ticker7handlerEv) for i._ZN4mbed6Ticker7handlerEv
    SPI.o(i._ZN4mbed3SPI5writeEi) refers to spi_api.o(i.spi_format) for spi_format
    SPI.o(i._ZN4mbed3SPI5writeEi) refers to spi_api.o(i.spi_frequency) for spi_frequency
    SPI.o(i._ZN4mbed3SPI5writeEi) refers to spi_api.o(i.spi_master_write) for spi_master_write
    SPI.o(i._ZN4mbed3SPI5writeEi) refers to SPI.o(.data) for .data
    SPI.o(i._ZN4mbed3SPI6aquireEv) refers to spi_api.o(i.spi_format) for spi_format
    SPI.o(i._ZN4mbed3SPI6aquireEv) refers to spi_api.o(i.spi_frequency) for spi_frequency
    SPI.o(i._ZN4mbed3SPI6aquireEv) refers to SPI.o(.data) for .data
    SPI.o(i._ZN4mbed3SPI6formatEii) refers to spi_api.o(i.spi_format) for spi_format
    SPI.o(i._ZN4mbed3SPI6formatEii) refers to spi_api.o(i.spi_frequency) for spi_frequency
    SPI.o(i._ZN4mbed3SPI6formatEii) refers to SPI.o(.data) for .data
    SPI.o(i._ZN4mbed3SPI9frequencyEi) refers to spi_api.o(i.spi_format) for spi_format
    SPI.o(i._ZN4mbed3SPI9frequencyEi) refers to spi_api.o(i.spi_frequency) for spi_frequency
    SPI.o(i._ZN4mbed3SPI9frequencyEi) refers to SPI.o(.data) for .data
    SPI.o(i._ZN4mbed3SPIC1E7PinNameS1_S1_S1_) refers to spi_api.o(i.spi_init) for spi_init
    SPI.o(i._ZN4mbed3SPIC1E7PinNameS1_S1_S1_) refers to spi_api.o(i.spi_format) for spi_format
    SPI.o(i._ZN4mbed3SPIC1E7PinNameS1_S1_S1_) refers to spi_api.o(i.spi_frequency) for spi_frequency
    SPI.o(i._ZN4mbed3SPIC1E7PinNameS1_S1_S1_) refers to SPI.o(.constdata__ZTVN4mbed3SPIE) for vtable for mbed::SPI
    SPI.o(.ARM.exidx) refers to SPI.o(i._ZN4mbed3SPIC1E7PinNameS1_S1_S1_) for i._ZN4mbed3SPIC1E7PinNameS1_S1_S1_
    SPI.o(.ARM.exidx) refers to SPI.o(i._ZN4mbed3SPI6aquireEv) for i._ZN4mbed3SPI6aquireEv
    SPI.o(.ARM.exidx) refers to SPI.o(i._ZN4mbed3SPI6formatEii) for i._ZN4mbed3SPI6formatEii
    SPI.o(.ARM.exidx) refers to SPI.o(i._ZN4mbed3SPI9frequencyEi) for i._ZN4mbed3SPI9frequencyEi
    SPI.o(.ARM.exidx) refers to SPI.o(i._ZN4mbed3SPI5writeEi) for i._ZN4mbed3SPI5writeEi
    assert.o(i.mbed_assert_internal) refers to _printf_percent.o(.ARM.Collect$$_printf_percent$$00000000) for _printf_percent
    assert.o(i.mbed_assert_internal) refers to _printf_d.o(.ARM.Collect$$_printf_percent$$00000009) for _printf_d
    assert.o(i.mbed_assert_internal) refers to _printf_s.o(.ARM.Collect$$_printf_percent$$00000014) for _printf_s
    assert.o(i.mbed_assert_internal) refers to _printf_dec.o(.text) for _printf_int_dec
    assert.o(i.mbed_assert_internal) refers to _printf_str.o(.text) for _printf_str
    assert.o(i.mbed_assert_internal) refers to __2fprintf.o(.text) for __2fprintf
    assert.o(i.mbed_assert_internal) refers to board.o(i.mbed_die) for mbed_die
    assert.o(i.mbed_assert_internal) refers to stdio_streams.o(.bss) for __stderr
    TimerEvent.o(i._ZN4mbed10TimerEvent6insertEy) refers to us_ticker_api.o(i.us_ticker_insert_event) for us_ticker_insert_event
    TimerEvent.o(i._ZN4mbed10TimerEvent6removeEv) refers to us_ticker_api.o(i.us_ticker_remove_event) for us_ticker_remove_event
    TimerEvent.o(i._ZN4mbed10TimerEventC2Ev) refers to us_ticker_api.o(i.us_ticker_set_handler) for us_ticker_set_handler
    TimerEvent.o(i._ZN4mbed10TimerEventC2Ev) refers to TimerEvent.o(.constdata__ZTVN4mbed10TimerEventE) for vtable for mbed::TimerEvent
    TimerEvent.o(i._ZN4mbed10TimerEventC2Ev) refers to TimerEvent.o(i._ZN4mbed10TimerEvent3irqEj) for mbed::TimerEvent::irq(unsigned)
    TimerEvent.o(i._ZN4mbed10TimerEventD0Ev) refers to us_ticker_api.o(i.us_ticker_remove_event) for us_ticker_remove_event
    TimerEvent.o(i._ZN4mbed10TimerEventD0Ev) refers to delete.o(i._ZdlPv) for operator delete (void*)
    TimerEvent.o(i._ZN4mbed10TimerEventD0Ev) refers to TimerEvent.o(.constdata__ZTVN4mbed10TimerEventE) for vtable for mbed::TimerEvent
    TimerEvent.o(i._ZN4mbed10TimerEventD2Ev) refers to us_ticker_api.o(i.us_ticker_remove_event) for us_ticker_remove_event
    TimerEvent.o(i._ZN4mbed10TimerEventD2Ev) refers to TimerEvent.o(.constdata__ZTVN4mbed10TimerEventE) for vtable for mbed::TimerEvent
    TimerEvent.o(.ARM.exidx) refers to TimerEvent.o(i._ZN4mbed10TimerEvent3irqEj) for i._ZN4mbed10TimerEvent3irqEj
    TimerEvent.o(.ARM.exidx) refers to TimerEvent.o(i._ZN4mbed10TimerEventC2Ev) for i._ZN4mbed10TimerEventC2Ev
    TimerEvent.o(.ARM.exidx) refers to TimerEvent.o(i._ZN4mbed10TimerEvent6removeEv) for i._ZN4mbed10TimerEvent6removeEv
    TimerEvent.o(.ARM.exidx) refers to TimerEvent.o(i._ZN4mbed10TimerEventD2Ev) for i._ZN4mbed10TimerEventD2Ev
    TimerEvent.o(.ARM.exidx) refers to TimerEvent.o(i._ZN4mbed10TimerEventD0Ev) for i._ZN4mbed10TimerEventD0Ev
    TimerEvent.o(.ARM.exidx) refers to TimerEvent.o(i._ZN4mbed10TimerEvent6insertEy) for i._ZN4mbed10TimerEvent6insertEy
    error.o(i.error) refers to vfprintf.o(.text) for vfprintf
    error.o(i.error) refers to exit.o(i.exit) for exit
    error.o(i.error) refers to stdio_streams.o(.bss) for __stderr
    gpio.o(i.gpio_init_in) refers to gpio_api.o(i.gpio_init) for gpio_init
    gpio.o(i.gpio_init_in) refers to gpio_api.o(i.gpio_dir) for gpio_dir
    gpio.o(i.gpio_init_in) refers to gpio_api.o(i.gpio_mode) for gpio_mode
    gpio.o(i.gpio_init_in_ex) refers to gpio_api.o(i.gpio_init) for gpio_init
    gpio.o(i.gpio_init_in_ex) refers to gpio_api.o(i.gpio_dir) for gpio_dir
    gpio.o(i.gpio_init_in_ex) refers to gpio_api.o(i.gpio_mode) for gpio_mode
    gpio.o(i.gpio_init_inout) refers to gpio_api.o(i.gpio_init) for gpio_init
    gpio.o(i.gpio_init_inout) refers to gpio_api.o(i.gpio_dir) for gpio_dir
    gpio.o(i.gpio_init_inout) refers to gpio_api.o(i.gpio_mode) for gpio_mode
    gpio.o(i.gpio_init_inout) refers to assert.o(i.mbed_assert_internal) for mbed_assert_internal
    gpio.o(i.gpio_init_inout) refers to gpio.o(.constdata) for .constdata
    gpio.o(i.gpio_init_out) refers to gpio_api.o(i.gpio_init) for gpio_init
    gpio.o(i.gpio_init_out) refers to assert.o(i.mbed_assert_internal) for mbed_assert_internal
    gpio.o(i.gpio_init_out) refers to gpio_api.o(i.gpio_dir) for gpio_dir
    gpio.o(i.gpio_init_out) refers to gpio_api.o(i.gpio_mode) for gpio_mode
    gpio.o(i.gpio_init_out) refers to gpio.o(.constdata) for .constdata
    gpio.o(i.gpio_init_out_ex) refers to gpio_api.o(i.gpio_init) for gpio_init
    gpio.o(i.gpio_init_out_ex) refers to assert.o(i.mbed_assert_internal) for mbed_assert_internal
    gpio.o(i.gpio_init_out_ex) refers to gpio_api.o(i.gpio_dir) for gpio_dir
    gpio.o(i.gpio_init_out_ex) refers to gpio_api.o(i.gpio_mode) for gpio_mode
    gpio.o(i.gpio_init_out_ex) refers to gpio.o(.constdata) for .constdata
    wait_api.o(i.wait) refers to us_ticker.o(i.us_ticker_read) for us_ticker_read
    wait_api.o(i.wait_ms) refers to us_ticker.o(i.us_ticker_read) for us_ticker_read
    wait_api.o(i.wait_us) refers to us_ticker.o(i.us_ticker_read) for us_ticker_read
    rtc_time.o(i.clock) refers to us_ticker.o(i.us_ticker_read) for us_ticker_read
    rtc_time.o(i.set_time) refers to rtc_api.o(i.rtc_init) for rtc_init
    rtc_time.o(i.set_time) refers to rtc_api.o(i.rtc_write) for rtc_write
    rtc_time.o(i.time) refers to rtc_api.o(i.rtc_isenabled) for rtc_isenabled
    rtc_time.o(i.time) refers to rtc_api.o(i.rtc_init) for rtc_init
    rtc_time.o(i.time) refers to rtc_api.o(i.rtc_write) for rtc_write
    rtc_time.o(i.time) refers to rtc_api.o(i.rtc_read) for rtc_read
    gpio_api.o(i.gpio_dir) refers to assert.o(i.mbed_assert_internal) for mbed_assert_internal
    gpio_api.o(i.gpio_dir) refers to gpio_api.o(.constdata) for .constdata
    gpio_api.o(i.gpio_init) refers to pinmap.o(i.pin_function) for pin_function
    gpio_api.o(i.gpio_mode) refers to pinmap.o(i.pin_mode) for pin_mode
    gpio_api.o(i.gpio_set) refers to assert.o(i.mbed_assert_internal) for mbed_assert_internal
    gpio_api.o(i.gpio_set) refers to pinmap.o(i.pin_function) for pin_function
    gpio_api.o(i.gpio_set) refers to gpio_api.o(.constdata) for .constdata
    pinmap.o(i.pin_function) refers to assert.o(i.mbed_assert_internal) for mbed_assert_internal
    pinmap.o(i.pin_function) refers to pinmap.o(.constdata) for .constdata
    pinmap.o(i.pin_mode) refers to assert.o(i.mbed_assert_internal) for mbed_assert_internal
    pinmap.o(i.pin_mode) refers to pinmap.o(.constdata) for .constdata
    rtc_api.o(i.rtc_read) refers to mktime.o(.text) for mktime
    rtc_api.o(i.rtc_write) refers to localtime.o(.text) for localtime
    us_ticker.o(i.us_ticker_init) refers to cmsis_nvic.o(i.NVIC_SetVector) for NVIC_SetVector
    us_ticker.o(i.us_ticker_init) refers to us_ticker.o(.data) for .data
    us_ticker.o(i.us_ticker_init) refers to system_LPC407x_8x_177x_8x.o(.data) for PeripheralClock
    us_ticker.o(i.us_ticker_init) refers to us_ticker_api.o(i.us_ticker_irq_handler) for us_ticker_irq_handler
    us_ticker.o(i.us_ticker_read) refers to cmsis_nvic.o(i.NVIC_SetVector) for NVIC_SetVector
    us_ticker.o(i.us_ticker_read) refers to us_ticker.o(.data) for .data
    us_ticker.o(i.us_ticker_read) refers to system_LPC407x_8x_177x_8x.o(.data) for PeripheralClock
    us_ticker.o(i.us_ticker_read) refers to us_ticker_api.o(i.us_ticker_irq_handler) for us_ticker_irq_handler
    spi_api.o(i.spi_format) refers to assert.o(i.mbed_assert_internal) for mbed_assert_internal
    spi_api.o(i.spi_format) refers to spi_api.o(.constdata) for .constdata
    spi_api.o(i.spi_frequency) refers to f2d.o(x$fpl$f2d) for __aeabi_f2d
    spi_api.o(i.spi_frequency) refers to floor.o(i.__hardfp_floor) for __hardfp_floor
    spi_api.o(i.spi_frequency) refers to dfix.o(x$fpl$dfix) for __aeabi_d2iz
    spi_api.o(i.spi_frequency) refers to error.o(i.error) for error
    spi_api.o(i.spi_frequency) refers to system_LPC407x_8x_177x_8x.o(.data) for PeripheralClock
    spi_api.o(i.spi_frequency) refers to spi_api.o(.constdata) for .constdata
    spi_api.o(i.spi_init) refers to pinmap_common.o(i.pinmap_peripheral) for pinmap_peripheral
    spi_api.o(i.spi_init) refers to pinmap_common.o(i.pinmap_merge) for pinmap_merge
    spi_api.o(i.spi_init) refers to assert.o(i.mbed_assert_internal) for mbed_assert_internal
    spi_api.o(i.spi_init) refers to spi_api.o(i.spi_format) for spi_format
    spi_api.o(i.spi_init) refers to f2d.o(x$fpl$f2d) for __aeabi_f2d
    spi_api.o(i.spi_init) refers to floor.o(i.__hardfp_floor) for __hardfp_floor
    spi_api.o(i.spi_init) refers to dfix.o(x$fpl$dfix) for __aeabi_d2iz
    spi_api.o(i.spi_init) refers to error.o(i.error) for error
    spi_api.o(i.spi_init) refers to pinmap_common.o(i.pinmap_pinout) for pinmap_pinout
    spi_api.o(i.spi_init) refers to spi_api.o(.constdata) for .constdata
    spi_api.o(i.spi_init) refers to system_LPC407x_8x_177x_8x.o(.data) for PeripheralClock
    FileBase.o(i._ZN4mbed8FileBase3getEi) refers to FileBase.o(.data) for .data
    FileBase.o(i._ZN4mbed8FileBase6lookupEPKcj) refers to strncmp.o(.text) for strncmp
    FileBase.o(i._ZN4mbed8FileBase6lookupEPKcj) refers to strlen.o(.text) for strlen
    FileBase.o(i._ZN4mbed8FileBase6lookupEPKcj) refers to FileBase.o(.data) for .data
    FileBase.o(i._ZN4mbed8FileBaseC1EPKcNS_8PathTypeE) refers to FileBase.o(.constdata__ZTVN4mbed8FileBaseE) for vtable for mbed::FileBase
    FileBase.o(i._ZN4mbed8FileBaseC1EPKcNS_8PathTypeE) refers to FileBase.o(.data) for .data
    FileBase.o(i._ZN4mbed8FileBaseD0Ev) refers to delete.o(i._ZdlPv) for operator delete (void*)
    FileBase.o(i._ZN4mbed8FileBaseD0Ev) refers to FileBase.o(.constdata__ZTVN4mbed8FileBaseE) for vtable for mbed::FileBase
    FileBase.o(i._ZN4mbed8FileBaseD0Ev) refers to FileBase.o(.data) for .data
    FileBase.o(i._ZN4mbed8FileBaseD1Ev) refers to FileBase.o(.constdata__ZTVN4mbed8FileBaseE) for vtable for mbed::FileBase
    FileBase.o(i._ZN4mbed8FileBaseD1Ev) refers to FileBase.o(.data) for .data
    FileBase.o(.ARM.exidx) refers to FileBase.o(i._ZN4mbed8FileBaseC1EPKcNS_8PathTypeE) for i._ZN4mbed8FileBaseC1EPKcNS_8PathTypeE
    FileBase.o(.ARM.exidx) refers to FileBase.o(i._ZN4mbed8FileBaseD1Ev) for i._ZN4mbed8FileBaseD1Ev
    FileBase.o(.ARM.exidx) refers to FileBase.o(i._ZN4mbed8FileBaseD0Ev) for i._ZN4mbed8FileBaseD0Ev
    FileBase.o(.ARM.exidx) refers to FileBase.o(i._ZN4mbed8FileBase7getNameEv) for i._ZN4mbed8FileBase7getNameEv
    FileBase.o(.ARM.exidx) refers to FileBase.o(i._ZN4mbed8FileBase11getPathTypeEv) for i._ZN4mbed8FileBase11getPathTypeEv
    FileBase.o(.ARM.exidx) refers to FileBase.o(i._ZN4mbed8FileBase6lookupEPKcj) for i._ZN4mbed8FileBase6lookupEPKcj
    FileBase.o(.ARM.exidx) refers to FileBase.o(i._ZN4mbed8FileBase3getEi) for i._ZN4mbed8FileBase3getEi
    exit.o(i.exit) refers to fflush.o(.text) for fflush
    exit.o(i.exit) refers to board.o(i.mbed_die) for mbed_die
    exit.o(i.exit) refers to stdio_streams.o(.bss) for __stdout
    exit.o(i.exit) refers to stdio_streams.o(.bss) for __stderr
    pinmap_common.o(i.pinmap_merge) refers to error.o(i.error) for error
    pinmap_common.o(i.pinmap_peripheral) refers to error.o(i.error) for error
    pinmap_common.o(i.pinmap_pinout) refers to pinmap.o(i.pin_function) for pin_function
    pinmap_common.o(i.pinmap_pinout) refers to pinmap.o(i.pin_mode) for pin_mode
    pinmap_common.o(i.pinmap_pinout) refers to error.o(i.error) for error
    us_ticker_api.o(i.us_ticker_insert_event) refers to us_ticker.o(i.us_ticker_set_interrupt) for us_ticker_set_interrupt
    us_ticker_api.o(i.us_ticker_insert_event) refers to us_ticker_api.o(.data) for .data
    us_ticker_api.o(i.us_ticker_irq_handler) refers to us_ticker.o(i.us_ticker_clear_interrupt) for us_ticker_clear_interrupt
    us_ticker_api.o(i.us_ticker_irq_handler) refers to us_ticker.o(i.us_ticker_read) for us_ticker_read
    us_ticker_api.o(i.us_ticker_irq_handler) refers to us_ticker.o(i.us_ticker_disable_interrupt) for us_ticker_disable_interrupt
    us_ticker_api.o(i.us_ticker_irq_handler) refers to us_ticker.o(i.us_ticker_set_interrupt) for us_ticker_set_interrupt
    us_ticker_api.o(i.us_ticker_irq_handler) refers to us_ticker_api.o(.data) for .data
    us_ticker_api.o(i.us_ticker_remove_event) refers to us_ticker.o(i.us_ticker_set_interrupt) for us_ticker_set_interrupt
    us_ticker_api.o(i.us_ticker_remove_event) refers to us_ticker.o(i.us_ticker_disable_interrupt) for us_ticker_disable_interrupt
    us_ticker_api.o(i.us_ticker_remove_event) refers to us_ticker_api.o(.data) for .data
    us_ticker_api.o(i.us_ticker_set_handler) refers to us_ticker.o(i.us_ticker_init) for us_ticker_init
    us_ticker_api.o(i.us_ticker_set_handler) refers to us_ticker_api.o(.data) for .data
    vfprintf.o(.text) refers (Special) to _printf_a.o(.ARM.Collect$$_printf_percent$$00000006) for _printf_a
    vfprintf.o(.text) refers (Special) to _printf_c.o(.ARM.Collect$$_printf_percent$$00000013) for _printf_c
    vfprintf.o(.text) refers (Special) to _printf_charcount.o(.text) for _printf_charcount
    vfprintf.o(.text) refers (Special) to _printf_d.o(.ARM.Collect$$_printf_percent$$00000009) for _printf_d
    vfprintf.o(.text) refers (Special) to _printf_e.o(.ARM.Collect$$_printf_percent$$00000004) for _printf_e
    vfprintf.o(.text) refers (Special) to _printf_f.o(.ARM.Collect$$_printf_percent$$00000003) for _printf_f
    vfprintf.o(.text) refers (Special) to printf1.o(x$fpl$printf1) for _printf_fp_dec
    vfprintf.o(.text) refers (Special) to printf2.o(x$fpl$printf2) for _printf_fp_hex
    vfprintf.o(.text) refers (Special) to _printf_g.o(.ARM.Collect$$_printf_percent$$00000005) for _printf_g
    vfprintf.o(.text) refers (Special) to _printf_i.o(.ARM.Collect$$_printf_percent$$00000008) for _printf_i
    vfprintf.o(.text) refers (Special) to _printf_dec.o(.text) for _printf_int_dec
    vfprintf.o(.text) refers (Special) to _printf_l.o(.ARM.Collect$$_printf_percent$$00000012) for _printf_l
    vfprintf.o(.text) refers (Special) to _printf_lc.o(.ARM.Collect$$_printf_percent$$00000015) for _printf_lc
    vfprintf.o(.text) refers (Special) to _printf_ll.o(.ARM.Collect$$_printf_percent$$00000007) for _printf_ll
    vfprintf.o(.text) refers (Special) to _printf_lld.o(.ARM.Collect$$_printf_percent$$0000000E) for _printf_lld
    vfprintf.o(.text) refers (Special) to _printf_lli.o(.ARM.Collect$$_printf_percent$$0000000D) for _printf_lli
    vfprintf.o(.text) refers (Special) to _printf_llo.o(.ARM.Collect$$_printf_percent$$00000010) for _printf_llo
    vfprintf.o(.text) refers (Special) to _printf_llu.o(.ARM.Collect$$_printf_percent$$0000000F) for _printf_llu
    vfprintf.o(.text) refers (Special) to _printf_llx.o(.ARM.Collect$$_printf_percent$$00000011) for _printf_llx
    vfprintf.o(.text) refers (Special) to _printf_longlong_dec.o(.text) for _printf_longlong_dec
    vfprintf.o(.text) refers (Special) to _printf_hex_int_ll_ptr.o(.text) for _printf_longlong_hex
    vfprintf.o(.text) refers (Special) to _printf_oct_int_ll.o(.text) for _printf_longlong_oct
    vfprintf.o(.text) refers (Special) to _printf_ls.o(.ARM.Collect$$_printf_percent$$00000016) for _printf_ls
    vfprintf.o(.text) refers (Special) to _printf_n.o(.ARM.Collect$$_printf_percent$$00000001) for _printf_n
    vfprintf.o(.text) refers (Special) to _printf_o.o(.ARM.Collect$$_printf_percent$$0000000B) for _printf_o
    vfprintf.o(.text) refers (Special) to _printf_p.o(.ARM.Collect$$_printf_percent$$00000002) for _printf_p
    vfprintf.o(.text) refers (Special) to _printf_percent.o(.ARM.Collect$$_printf_percent$$00000000) for _printf_percent
    vfprintf.o(.text) refers (Special) to _printf_pad.o(.text) for _printf_post_padding
    vfprintf.o(.text) refers (Special) to _printf_s.o(.ARM.Collect$$_printf_percent$$00000014) for _printf_s
    vfprintf.o(.text) refers (Special) to _printf_str.o(.text) for _printf_str
    vfprintf.o(.text) refers (Special) to _printf_truncate.o(.text) for _printf_truncate_signed
    vfprintf.o(.text) refers (Special) to _printf_u.o(.ARM.Collect$$_printf_percent$$0000000A) for _printf_u
    vfprintf.o(.text) refers (Special) to _printf_wctomb.o(.text) for _printf_wctomb
    vfprintf.o(.text) refers (Special) to _printf_x.o(.ARM.Collect$$_printf_percent$$0000000C) for _printf_x
    vfprintf.o(.text) refers to _printf_char_file.o(.text) for _printf_char_file
    c89vfprintf.o(.text) refers (Special) to _printf_a.o(.ARM.Collect$$_printf_percent$$00000006) for _printf_a
    c89vfprintf.o(.text) refers (Special) to _printf_c.o(.ARM.Collect$$_printf_percent$$00000013) for _printf_c
    c89vfprintf.o(.text) refers (Special) to _printf_charcount.o(.text) for _printf_charcount
    c89vfprintf.o(.text) refers (Special) to _printf_d.o(.ARM.Collect$$_printf_percent$$00000009) for _printf_d
    c89vfprintf.o(.text) refers (Special) to _printf_e.o(.ARM.Collect$$_printf_percent$$00000004) for _printf_e
    c89vfprintf.o(.text) refers (Special) to _printf_f.o(.ARM.Collect$$_printf_percent$$00000003) for _printf_f
    c89vfprintf.o(.text) refers (Special) to printf1.o(x$fpl$printf1) for _printf_fp_dec
    c89vfprintf.o(.text) refers (Special) to _printf_g.o(.ARM.Collect$$_printf_percent$$00000005) for _printf_g
    c89vfprintf.o(.text) refers (Special) to _printf_i.o(.ARM.Collect$$_printf_percent$$00000008) for _printf_i
    c89vfprintf.o(.text) refers (Special) to _printf_dec.o(.text) for _printf_int_dec
    c89vfprintf.o(.text) refers (Special) to _printf_l.o(.ARM.Collect$$_printf_percent$$00000012) for _printf_l
    c89vfprintf.o(.text) refers (Special) to _printf_lc.o(.ARM.Collect$$_printf_percent$$00000015) for _printf_lc
    c89vfprintf.o(.text) refers (Special) to _printf_ll.o(.ARM.Collect$$_printf_percent$$00000007) for _printf_ll
    c89vfprintf.o(.text) refers (Special) to _printf_lld.o(.ARM.Collect$$_printf_percent$$0000000E) for _printf_lld
    c89vfprintf.o(.text) refers (Special) to _printf_lli.o(.ARM.Collect$$_printf_percent$$0000000D) for _printf_lli
    c89vfprintf.o(.text) refers (Special) to _printf_llo.o(.ARM.Collect$$_printf_percent$$00000010) for _printf_llo
    c89vfprintf.o(.text) refers (Special) to _printf_llu.o(.ARM.Collect$$_printf_percent$$0000000F) for _printf_llu
    c89vfprintf.o(.text) refers (Special) to _printf_llx.o(.ARM.Collect$$_printf_percent$$00000011) for _printf_llx
    c89vfprintf.o(.text) refers (Special) to _printf_longlong_dec.o(.text) for _printf_longlong_dec
    c89vfprintf.o(.text) refers (Special) to _printf_hex_int_ll_ptr.o(.text) for _printf_longlong_hex
    c89vfprintf.o(.text) refers (Special) to _printf_oct_int_ll.o(.text) for _printf_longlong_oct
    c89vfprintf.o(.text) refers (Special) to _printf_ls.o(.ARM.Collect$$_printf_percent$$00000016) for _printf_ls
    c89vfprintf.o(.text) refers (Special) to _printf_n.o(.ARM.Collect$$_printf_percent$$00000001) for _printf_n
    c89vfprintf.o(.text) refers (Special) to _printf_o.o(.ARM.Collect$$_printf_percent$$0000000B) for _printf_o
    c89vfprintf.o(.text) refers (Special) to _printf_p.o(.ARM.Collect$$_printf_percent$$00000002) for _printf_p
    c89vfprintf.o(.text) refers (Special) to _printf_percent.o(.ARM.Collect$$_printf_percent$$00000000) for _printf_percent
    c89vfprintf.o(.text) refers (Special) to _printf_pad.o(.text) for _printf_post_padding
    c89vfprintf.o(.text) refers (Special) to _printf_s.o(.ARM.Collect$$_printf_percent$$00000014) for _printf_s
    c89vfprintf.o(.text) refers (Special) to _printf_str.o(.text) for _printf_str
    c89vfprintf.o(.text) refers (Special) to _printf_truncate.o(.text) for _printf_truncate_signed
    c89vfprintf.o(.text) refers (Special) to _printf_u.o(.ARM.Collect$$_printf_percent$$0000000A) for _printf_u
    c89vfprintf.o(.text) refers (Special) to _printf_wctomb.o(.text) for _printf_wctomb
    c89vfprintf.o(.text) refers (Special) to _printf_x.o(.ARM.Collect$$_printf_percent$$0000000C) for _printf_x
    c89vfprintf.o(.text) refers to _printf_char_file.o(.text) for _printf_char_file
    __2printf.o(.text) refers to _printf_char_file.o(.text) for _printf_char_file
    __2printf.o(.text) refers to stdio_streams.o(.bss) for __stdout
    __2fprintf.o(.text) refers to _printf_char_file.o(.text) for _printf_char_file
    __2sprintf.o(.text) refers to _printf_char_common.o(.text) for _printf_char_common
    __2sprintf.o(.text) refers to _sputc.o(.text) for _sputc
    noretval__2printf.o(.text) refers to _printf_char_file.o(.text) for _printf_char_file
    noretval__2printf.o(.text) refers to stdio_streams.o(.bss) for __stdout
    noretval__2fprintf.o(.text) refers to _printf_char_file.o(.text) for _printf_char_file
    noretval__2sprintf.o(.text) refers to _printf_char_common.o(.text) for _printf_char_common
    noretval__2sprintf.o(.text) refers to _sputc.o(.text) for _sputc
    __printf.o(.text) refers to _printf_percent.o(.ARM.Collect$$_printf_percent$$00000000) for _printf_percent
    _printf_str.o(.text) refers (Special) to _printf_char.o(.text) for _printf_cs_common
    _printf_str.o(.text) refers (Weak) to _printf_pad.o(.text) for _printf_pre_padding
    _printf_str.o(.text) refers (Weak) to _printf_pad.o(.text) for _printf_post_padding
    _printf_dec.o(.text) refers (Weak) to _printf_truncate.o(.text) for _printf_truncate_signed
    _printf_dec.o(.text) refers (Weak) to _printf_truncate.o(.text) for _printf_truncate_unsigned
    _printf_dec.o(.text) refers to _printf_intcommon.o(.text) for _printf_int_common
    __printf_flags.o(.text) refers to _printf_percent.o(.ARM.Collect$$_printf_percent$$00000000) for _printf_percent
    __printf_flags.o(.text) refers to __printf_flags.o(.constdata) for .constdata
    __printf_ss.o(.text) refers to _printf_percent.o(.ARM.Collect$$_printf_percent$$00000000) for _printf_percent
    __printf_flags_ss.o(.text) refers to _printf_percent.o(.ARM.Collect$$_printf_percent$$00000000) for _printf_percent
    __printf_flags_ss.o(.text) refers to __printf_flags_ss.o(.constdata) for .constdata
    __printf_wp.o(.text) refers to __printf_wp.o(i._is_digit) for _is_digit
    __printf_wp.o(.text) refers to _printf_percent.o(.ARM.Collect$$_printf_percent$$00000000) for _printf_percent
    __printf_flags_wp.o(.text) refers to __printf_wp.o(i._is_digit) for _is_digit
    __printf_flags_wp.o(.text) refers to _printf_percent.o(.ARM.Collect$$_printf_percent$$00000000) for _printf_percent
    __printf_flags_wp.o(.text) refers to __printf_flags_wp.o(.constdata) for .constdata
    __printf_ss_wp.o(.text) refers to __printf_wp.o(i._is_digit) for _is_digit
    __printf_ss_wp.o(.text) refers to _printf_percent.o(.ARM.Collect$$_printf_percent$$00000000) for _printf_percent
    __printf_flags_ss_wp.o(.text) refers to __printf_wp.o(i._is_digit) for _is_digit
    __printf_flags_ss_wp.o(.text) refers to _printf_percent.o(.ARM.Collect$$_printf_percent$$00000000) for _printf_percent
    __printf_flags_ss_wp.o(.text) refers to __printf_flags_ss_wp.o(.constdata) for .constdata
    _printf_s.o(.ARM.Collect$$_printf_percent$$00000014) refers (Weak) to _printf_char.o(.text) for _printf_string
    _printf_d.o(.ARM.Collect$$_printf_percent$$00000009) refers (Weak) to _printf_dec.o(.text) for _printf_int_dec
    _printf_f.o(.ARM.Collect$$_printf_percent$$00000003) refers (Weak) to printf1.o(x$fpl$printf1) for _printf_fp_dec
    _printf_percent.o(.ARM.Collect$$_printf_percent$$00000000) refers (Special) to _printf_percent_end.o(.ARM.Collect$$_printf_percent$$00000017) for _printf_percent_end
    __0sscanf.o(.text) refers to scanf_char.o(.text) for __vfscanf_char
    __0sscanf.o(.text) refers to _sgetc.o(.text) for _sgetc
    _scanf_int.o(.text) refers to _chval.o(.text) for _chval
    fflush.o(.text) refers to stdio.o(.text) for _fflush
    fflush.o(.text) refers to fseek.o(.text) for _fseek
    fflush.o(.text) refers to stdio_streams.o(.bss) for __stdin
    fopen.o(.text) refers to fclose.o(.text) for _fclose_internal
    fopen.o(.text) refers to retarget.o(i._sys_open) for _sys_open
    fopen.o(.text) refers to fseek.o(.text) for _fseek
    fopen.o(.text) refers to h1_alloc.o(.text) for malloc
    fopen.o(.text) refers to rt_memclr_w.o(.text) for __aeabi_memclr4
    fopen.o(.text) refers to stdio_streams.o(.bss) for __stdin
    stdio_streams.o(.bss) refers (Special) to initio.o(.text) for _initio
    stdio_streams.o(.bss) refers (Special) to initio.o(.text) for _initio
    stdio_streams.o(.bss) refers (Special) to initio.o(.text) for _initio
    stdio_streams.o(.data) refers (Special) to initio.o(.text) for _initio
    stdio_streams.o(.data) refers (Special) to initio.o(.text) for _initio
    stdio_streams.o(.data) refers (Special) to initio.o(.text) for _initio
    fclose.o(.text) refers to stdio.o(.text) for _fflush
    fclose.o(.text) refers to retarget.o(i._sys_close) for _sys_close
    fclose.o(.text) refers to h1_free.o(.text) for free
    fclose.o(.text) refers to rt_memclr_w.o(.text) for __aeabi_memclr4
    fclose_locked.o(.text) refers to fclose.o(.text) for _fclose_internal
    fclose_locked.o(.text) refers to streamlock.o(.data) for _stream_list_lock
    fflush_locked.o(.text) refers to stdio.o(.text) for _fflush
    fflush_locked.o(.text) refers to fseek.o(.text) for _fseek
    fflush_locked.o(.text) refers to fflush.o(.text) for _do_fflush
    fflush_locked.o(.text) refers to streamlock.o(.data) for _stream_list_lock
    fflush_locked.o(.text) refers to stdio_streams.o(.bss) for __stdin
    fopen_locked.o(.text) refers to fclose.o(.text) for _fclose_internal
    fopen_locked.o(.text) refers to retarget.o(i._sys_open) for _sys_open
    fopen_locked.o(.text) refers to fseek.o(.text) for _fseek
    fopen_locked.o(.text) refers to h1_alloc.o(.text) for malloc
    fopen_locked.o(.text) refers to rt_memclr_w.o(.text) for __aeabi_memclr4
    fopen_locked.o(.text) refers to streamlock.o(.data) for _stream_list_lock
    fopen_locked.o(.text) refers to stdio_streams.o(.bss) for __stdin
    atexit_cpp.o(.text) refers to cxa_atexit.o(i.__cxa_atexit) for __cxa_atexit
    atexit_cpp.o(.ARM.exidx) refers to atexit_cpp.o(.text) for .text
    rt_memcpy_v6.o(.text) refers to rt_memcpy_w.o(.text) for __aeabi_memcpy4
    rt_memmove_w.o(.text) refers to rt_memcpy_w.o(.text) for __aeabi_memcpy4
    strncpy.o(.text) refers to rt_memclr.o(.text) for __aeabi_memclr
    localtime.o(.text) refers to localtime_internal.o(.text) for _localtime_r
    localtime.o(.text) refers to localtime.o(.bss) for .bss
    mktime.o(.text) refers to _monlen.o(.constdata) for _monlen
    __main.o(!!!main) refers to rtentry.o(.ARM.Collect$$rtentry$$00000000) for __rt_entry
    init_aeabi.o(.emb_text) refers (Special) to libinit2.o(.ARM.Collect$$libinit$$0000002F) for __rt_lib_init_cpp_2
    init_aeabi.o(.init_array) refers (Special) to libinit2.o(.ARM.Collect$$libinit$$0000002F) for __rt_lib_init_cpp_2
    init_aeabi.o(.init_array) refers to init_aeabi.o(.text) for __cpp_initialize__aeabi_
    init_aeabi.o(.dummy_text) refers (Special) to libinit2.o(.ARM.Collect$$libinit$$0000002F) for __rt_lib_init_cpp_2
    init_aeabi.o(.text) refers (Special) to libinit2.o(.ARM.Collect$$libinit$$0000002F) for __rt_lib_init_cpp_2
    init_aeabi.o(.ARM.exidx) refers (Special) to libinit2.o(.ARM.Collect$$libinit$$0000002F) for __rt_lib_init_cpp_2
    init_aeabi.o(.ARM.exidx) refers to init_aeabi.o(.text) for .text
    delete.o(i._ZdlPv) refers to h1_free.o(.text) for free
    delete.o(.ARM.exidx) refers to delete.o(i._ZdlPv) for i._ZdlPv
    new.o(i._Znwj) refers to rt_new_handler_addr.o(.text) for __rt_new_handler_addr
    new.o(i._Znwj) refers to h1_alloc.o(.text) for malloc
    new.o(i._Znwj) refers to arm_newhandler_noexceptions.o(.text) for __default_new_handler()
    new.o(.ARM.exidx) refers to new.o(i._Znwj) for i._Znwj
    new.o(.ARM.exidx) refers to unwind_pr0.o(.text) for __aeabi_unwind_cpp_pr0
    new.o(.ARM.exidx) refers to new.o(.ARM.extab) for .extab._Znwj
    new.o(.ARM.extab) refers to arm_callunex_noexceptions.o(.text) for __cxa_call_unexpected
    new.o(.ARM.extab) refers to bad_alloc_dtor.o(.constdata__ZTISt9bad_alloc) for typeinfo for std::bad_alloc
    pure_virt.o(i.__cxa_pure_virtual) refers to defsig_pvfn_outer.o(.text) for __rt_SIGPVFN
    pure_virt.o(.ARM.exidx) refers to pure_virt.o(i.__cxa_pure_virtual) for i.__cxa_pure_virtual
    aeabi_atexit.o(i.__aeabi_atexit) refers (Special) to cxa_finalize.o(i.__cxa_finalize) for __cxa_finalize
    aeabi_atexit.o(i.__aeabi_atexit) refers (Special) to libshutdown2.o(.ARM.Collect$$libshutdown$$00000001) for __rt_lib_shutdown_cpp_1
    aeabi_atexit.o(i.__aeabi_atexit) refers to h1_alloc.o(.text) for malloc
    aeabi_atexit.o(i.__aeabi_atexit) refers to rt_ddtor_pointer_addr.o(.text) for __rt_ddtor_pointer_addr
    aeabi_atexit.o(.ARM.exidx) refers (Special) to cxa_finalize.o(i.__cxa_finalize) for __cxa_finalize
    aeabi_atexit.o(.ARM.exidx) refers (Special) to libshutdown2.o(.ARM.Collect$$libshutdown$$00000001) for __rt_lib_shutdown_cpp_1
    aeabi_atexit.o(.ARM.exidx) refers to aeabi_atexit.o(i.__aeabi_atexit) for i.__aeabi_atexit
    lib_rtti_impl.o(i._ZN10__cxxabiv116__enum_type_infoD0Ev) refers to lib_rtti_impl.o(i._ZN10__cxxabiv116__enum_type_infoD1Ev) for __cxxabiv1::__enum_type_info::~__enum_type_info()
    lib_rtti_impl.o(i._ZN10__cxxabiv116__enum_type_infoD1Ev) refers to type_info_dtor.o(i._ZNSt9type_infoD1Ev) for std::type_info::~type_info()
    lib_rtti_impl.o(i._ZN10__cxxabiv117__array_type_infoD0Ev) refers to lib_rtti_impl.o(i._ZN10__cxxabiv117__array_type_infoD1Ev) for __cxxabiv1::__array_type_info::~__array_type_info()
    lib_rtti_impl.o(i._ZN10__cxxabiv117__array_type_infoD1Ev) refers to type_info_dtor.o(i._ZNSt9type_infoD1Ev) for std::type_info::~type_info()
    lib_rtti_impl.o(i._ZN10__cxxabiv117__class_type_infoD0Ev) refers to lib_rtti_impl.o(i._ZN10__cxxabiv117__class_type_infoD1Ev) for __cxxabiv1::__class_type_info::~__class_type_info()
    lib_rtti_impl.o(i._ZN10__cxxabiv117__class_type_infoD1Ev) refers to type_info_dtor.o(i._ZNSt9type_infoD1Ev) for std::type_info::~type_info()
    lib_rtti_impl.o(i._ZN10__cxxabiv117__pbase_type_infoD0Ev) refers to lib_rtti_impl.o(i._ZN10__cxxabiv117__pbase_type_infoD1Ev) for __cxxabiv1::__pbase_type_info::~__pbase_type_info()
    lib_rtti_impl.o(i._ZN10__cxxabiv117__pbase_type_infoD1Ev) refers to type_info_dtor.o(i._ZNSt9type_infoD1Ev) for std::type_info::~type_info()
    lib_rtti_impl.o(i._ZN10__cxxabiv119__pointer_type_infoD0Ev) refers to lib_rtti_impl.o(i._ZN10__cxxabiv119__pointer_type_infoD1Ev) for __cxxabiv1::__pointer_type_info::~__pointer_type_info()
    lib_rtti_impl.o(i._ZN10__cxxabiv119__pointer_type_infoD1Ev) refers to lib_rtti_impl.o(i._ZN10__cxxabiv117__pbase_type_infoD1Ev) for __cxxabiv1::__pbase_type_info::~__pbase_type_info()
    lib_rtti_impl.o(i._ZN10__cxxabiv120__function_type_infoD0Ev) refers to lib_rtti_impl.o(i._ZN10__cxxabiv120__function_type_infoD1Ev) for __cxxabiv1::__function_type_info::~__function_type_info()
    lib_rtti_impl.o(i._ZN10__cxxabiv120__function_type_infoD1Ev) refers to type_info_dtor.o(i._ZNSt9type_infoD1Ev) for std::type_info::~type_info()
    lib_rtti_impl.o(i._ZN10__cxxabiv120__si_class_type_infoD0Ev) refers to lib_rtti_impl.o(i._ZN10__cxxabiv120__si_class_type_infoD1Ev) for __cxxabiv1::__si_class_type_info::~__si_class_type_info()
    lib_rtti_impl.o(i._ZN10__cxxabiv120__si_class_type_infoD1Ev) refers to lib_rtti_impl.o(i._ZN10__cxxabiv117__class_type_infoD1Ev) for __cxxabiv1::__class_type_info::~__class_type_info()
    lib_rtti_impl.o(i._ZN10__cxxabiv121__vmi_class_type_infoD0Ev) refers to lib_rtti_impl.o(i._ZN10__cxxabiv121__vmi_class_type_infoD1Ev) for __cxxabiv1::__vmi_class_type_info::~__vmi_class_type_info()
    lib_rtti_impl.o(i._ZN10__cxxabiv121__vmi_class_type_infoD1Ev) refers to lib_rtti_impl.o(i._ZN10__cxxabiv117__class_type_infoD1Ev) for __cxxabiv1::__class_type_info::~__class_type_info()
    lib_rtti_impl.o(i._ZN10__cxxabiv123__fundamental_type_infoD0Ev) refers to lib_rtti_impl.o(i._ZN10__cxxabiv123__fundamental_type_infoD1Ev) for __cxxabiv1::__fundamental_type_info::~__fundamental_type_info()
    lib_rtti_impl.o(i._ZN10__cxxabiv123__fundamental_type_infoD1Ev) refers to type_info_dtor.o(i._ZNSt9type_infoD1Ev) for std::type_info::~type_info()
    lib_rtti_impl.o(i._ZN10__cxxabiv129__pointer_to_member_type_infoD0Ev) refers to lib_rtti_impl.o(i._ZN10__cxxabiv129__pointer_to_member_type_infoD1Ev) for __cxxabiv1::__pointer_to_member_type_info::~__pointer_to_member_type_info()
    lib_rtti_impl.o(i._ZN10__cxxabiv129__pointer_to_member_type_infoD1Ev) refers to lib_rtti_impl.o(i._ZN10__cxxabiv117__pbase_type_infoD1Ev) for __cxxabiv1::__pbase_type_info::~__pbase_type_info()
    lib_rtti_impl.o(.ARM.exidx) refers to lib_rtti_impl.o(i._ZN10__cxxabiv123__fundamental_type_infoD1Ev) for i._ZN10__cxxabiv123__fundamental_type_infoD1Ev
    lib_rtti_impl.o(.ARM.exidx) refers to lib_rtti_impl.o(i._ZN10__cxxabiv123__fundamental_type_infoD0Ev) for i._ZN10__cxxabiv123__fundamental_type_infoD0Ev
    lib_rtti_impl.o(.ARM.exidx) refers to lib_rtti_impl.o(i._ZN10__cxxabiv117__array_type_infoD1Ev) for i._ZN10__cxxabiv117__array_type_infoD1Ev
    lib_rtti_impl.o(.ARM.exidx) refers to lib_rtti_impl.o(i._ZN10__cxxabiv117__array_type_infoD0Ev) for i._ZN10__cxxabiv117__array_type_infoD0Ev
    lib_rtti_impl.o(.ARM.exidx) refers to lib_rtti_impl.o(i._ZN10__cxxabiv120__function_type_infoD1Ev) for i._ZN10__cxxabiv120__function_type_infoD1Ev
    lib_rtti_impl.o(.ARM.exidx) refers to lib_rtti_impl.o(i._ZN10__cxxabiv120__function_type_infoD0Ev) for i._ZN10__cxxabiv120__function_type_infoD0Ev
    lib_rtti_impl.o(.ARM.exidx) refers to lib_rtti_impl.o(i._ZN10__cxxabiv116__enum_type_infoD1Ev) for i._ZN10__cxxabiv116__enum_type_infoD1Ev
    lib_rtti_impl.o(.ARM.exidx) refers to lib_rtti_impl.o(i._ZN10__cxxabiv116__enum_type_infoD0Ev) for i._ZN10__cxxabiv116__enum_type_infoD0Ev
    lib_rtti_impl.o(.ARM.exidx) refers to lib_rtti_impl.o(i._ZN10__cxxabiv117__class_type_infoD1Ev) for i._ZN10__cxxabiv117__class_type_infoD1Ev
    lib_rtti_impl.o(.ARM.exidx) refers to lib_rtti_impl.o(i._ZN10__cxxabiv117__class_type_infoD0Ev) for i._ZN10__cxxabiv117__class_type_infoD0Ev
    lib_rtti_impl.o(.ARM.exidx) refers to lib_rtti_impl.o(i._ZN10__cxxabiv120__si_class_type_infoD1Ev) for i._ZN10__cxxabiv120__si_class_type_infoD1Ev
    lib_rtti_impl.o(.ARM.exidx) refers to lib_rtti_impl.o(i._ZN10__cxxabiv120__si_class_type_infoD0Ev) for i._ZN10__cxxabiv120__si_class_type_infoD0Ev
    lib_rtti_impl.o(.ARM.exidx) refers to lib_rtti_impl.o(i._ZN10__cxxabiv121__vmi_class_type_infoD1Ev) for i._ZN10__cxxabiv121__vmi_class_type_infoD1Ev
    lib_rtti_impl.o(.ARM.exidx) refers to lib_rtti_impl.o(i._ZN10__cxxabiv121__vmi_class_type_infoD0Ev) for i._ZN10__cxxabiv121__vmi_class_type_infoD0Ev
    lib_rtti_impl.o(.ARM.exidx) refers to lib_rtti_impl.o(i._ZN10__cxxabiv117__pbase_type_infoD1Ev) for i._ZN10__cxxabiv117__pbase_type_infoD1Ev
    lib_rtti_impl.o(.ARM.exidx) refers to lib_rtti_impl.o(i._ZN10__cxxabiv117__pbase_type_infoD0Ev) for i._ZN10__cxxabiv117__pbase_type_infoD0Ev
    lib_rtti_impl.o(.ARM.exidx) refers to lib_rtti_impl.o(i._ZN10__cxxabiv119__pointer_type_infoD1Ev) for i._ZN10__cxxabiv119__pointer_type_infoD1Ev
    lib_rtti_impl.o(.ARM.exidx) refers to lib_rtti_impl.o(i._ZN10__cxxabiv119__pointer_type_infoD0Ev) for i._ZN10__cxxabiv119__pointer_type_infoD0Ev
    lib_rtti_impl.o(.ARM.exidx) refers to lib_rtti_impl.o(i._ZN10__cxxabiv129__pointer_to_member_type_infoD1Ev) for i._ZN10__cxxabiv129__pointer_to_member_type_infoD1Ev
    lib_rtti_impl.o(.ARM.exidx) refers to lib_rtti_impl.o(i._ZN10__cxxabiv129__pointer_to_member_type_infoD0Ev) for i._ZN10__cxxabiv129__pointer_to_member_type_infoD0Ev
    daddsub_clz.o(x$fpl$dadd) refers (Special) to usenofp.o(x$fpl$usenofp) for __I$use$fp
    daddsub_clz.o(x$fpl$dadd) refers to daddsub_clz.o(x$fpl$dsub) for _dsub1
    daddsub_clz.o(x$fpl$dadd) refers to dretinf.o(x$fpl$dretinf) for __fpl_dretinf
    daddsub_clz.o(x$fpl$dadd) refers to dnaninf.o(x$fpl$dnaninf) for __fpl_dnaninf
    daddsub_clz.o(x$fpl$drsb) refers (Special) to usenofp.o(x$fpl$usenofp) for __I$use$fp
    daddsub_clz.o(x$fpl$drsb) refers to daddsub_clz.o(x$fpl$dadd) for _dadd1
    daddsub_clz.o(x$fpl$drsb) refers to daddsub_clz.o(x$fpl$dsub) for _dsub1
    daddsub_clz.o(x$fpl$dsub) refers (Special) to usenofp.o(x$fpl$usenofp) for __I$use$fp
    daddsub_clz.o(x$fpl$dsub) refers to daddsub_clz.o(x$fpl$dadd) for _dadd1
    daddsub_clz.o(x$fpl$dsub) refers to dnaninf.o(x$fpl$dnaninf) for __fpl_dnaninf
    dfix.o(x$fpl$dfix) refers (Special) to usenofp.o(x$fpl$usenofp) for __I$use$fp
    dfix.o(x$fpl$dfix) refers to dnaninf.o(x$fpl$dnaninf) for __fpl_dnaninf
    dfix.o(x$fpl$dfixr) refers (Special) to usenofp.o(x$fpl$usenofp) for __I$use$fp
    dfix.o(x$fpl$dfixr) refers to dnaninf.o(x$fpl$dnaninf) for __fpl_dnaninf
    dleqf.o(x$fpl$dleqf) refers (Special) to usenofp.o(x$fpl$usenofp) for __I$use$fp
    dleqf.o(x$fpl$dleqf) refers to dnaninf.o(x$fpl$dnaninf) for __fpl_dnaninf
    dleqf.o(x$fpl$dleqf) refers to dcmpi.o(x$fpl$dcmpinf) for __fpl_dcmp_Inf
    f2d.o(x$fpl$f2d) refers (Special) to usenofp.o(x$fpl$usenofp) for __I$use$fp
    f2d.o(x$fpl$f2d) refers to fnaninf.o(x$fpl$fnaninf) for __fpl_fnaninf
    f2d.o(x$fpl$f2d) refers to dretinf.o(x$fpl$dretinf) for __fpl_dretinf
    printf1.o(x$fpl$printf1) refers to _printf_fp_dec.o(.text) for _printf_fp_dec_real
    floor.o(i.__hardfp_floor) refers (Special) to usenofp.o(x$fpl$usenofp) for __I$use$fp
    floor.o(i.__hardfp_floor) refers to daddsub_clz.o(x$fpl$dadd) for __aeabi_dadd
    floor.o(i.__hardfp_floor) refers to drleqf.o(x$fpl$drleqf) for __aeabi_cdrcmple
    floor.o(i.__hardfp_floor) refers to daddsub_clz.o(x$fpl$drsb) for __aeabi_drsub
    floor.o(i.__softfp_floor) refers (Special) to usenofp.o(x$fpl$usenofp) for __I$use$fp
    floor.o(i.__softfp_floor) refers to floor.o(i.__hardfp_floor) for __hardfp_floor
    floor.o(i.floor) refers (Special) to usenofp.o(x$fpl$usenofp) for __I$use$fp
    floor.o(i.floor) refers to floor.o(i.__hardfp_floor) for __hardfp_floor
    rtentry.o(.ARM.Collect$$rtentry$$00000000) refers (Special) to rtentry2.o(.ARM.Collect$$rtentry$$0000000A) for __rt_entry_li
    rtentry.o(.ARM.Collect$$rtentry$$00000000) refers (Special) to rtentry2.o(.ARM.Collect$$rtentry$$0000000D) for __rt_entry_main
    rtentry.o(.ARM.Collect$$rtentry$$00000000) refers (Special) to rtentry2.o(.ARM.Collect$$rtentry$$0000000C) for __rt_entry_postli_1
    rtentry.o(.ARM.Collect$$rtentry$$00000000) refers (Special) to rtentry2.o(.ARM.Collect$$rtentry$$00000009) for __rt_entry_postsh_1
    rtentry.o(.ARM.Collect$$rtentry$$00000000) refers (Special) to rtentry2.o(.ARM.Collect$$rtentry$$00000002) for __rt_entry_presh_1
    rtentry.o(.ARM.Collect$$rtentry$$00000000) refers (Special) to rtentry4.o(.ARM.Collect$$rtentry$$00000004) for __rt_entry_sh
    rt_new_handler_addr.o(.text) refers to rt_new_handler_addr.o(.bss) for __rt_new_handler_addr_data
    rt_new_handler_addr_intlibspace.o(.text) refers to libspace.o(.bss) for __libspace_start
    rt_ddtor_pointer_addr.o(.text) refers to rt_ddtor_pointer_addr.o(.bss) for __rt_ddtor_pointer_addr_data
    rt_ddtor_pointer_addr_intlibspace.o(.text) refers to libspace.o(.bss) for __libspace_start
    malloc.o(.text) refers (Special) to hguard.o(.text) for __heap$guard
    malloc.o(.text) refers (Special) to init_alloc.o(.text) for _init_alloc
    malloc.o(.text) refers to rt_heap_descriptor.o(.text) for __rt_heap_descriptor
    malloc.o(.text) refers to heapstubs.o(.text) for __Heap_Alloc
    free.o(.text) refers (Special) to hguard.o(.text) for __heap$guard
    free.o(.text) refers to rt_heap_descriptor.o(.text) for __rt_heap_descriptor
    free.o(.text) refers to heapstubs.o(.text) for __Heap_Free
    h1_alloc.o(.text) refers (Special) to h1_init.o(.text) for __Heap_Initialize
    h1_alloc.o(.text) refers to rt_heap_descriptor.o(.text) for __rt_heap_descriptor
    h1_alloc.o(.text) refers to init_alloc.o(.text) for __Heap_Full
    h1_free.o(.text) refers to rt_heap_descriptor.o(.text) for __rt_heap_descriptor
    h1_alloc_mt.o(.text) refers (Special) to h1_init.o(.text) for __Heap_Initialize
    h1_alloc_mt.o(.text) refers to init_alloc.o(.text) for __Heap_Full
    h1_alloc_mt.o(.text) refers to rt_heap_descriptor.o(.text) for __rt_heap_descriptor
    h1_free_mt.o(.text) refers to rt_heap_descriptor.o(.text) for __rt_heap_descriptor
    heap2.o(i._FDIterate) refers to heap2.o(.conststring) for .conststring
    heap2.o(i.___Heap_ProvideMemory$realtime) refers to fdtree.o(i._FDTree_Delete) for _FDTree_Delete
    heap2.o(i.___Heap_ProvideMemory$realtime) refers to fdtree.o(i._FDTree_Insert) for _FDTree_Insert
    heap2.o(i.___Heap_Stats$realtime) refers to heap2.o(i._Heap2_StatsIterate) for _Heap2_StatsIterate
    heap2.o(i.___Heap_Valid$realtime) refers to heap2.o(i._FDIterate) for _FDIterate
    heap2.o(i.___Heap_Valid$realtime) refers to heap2.o(.conststring) for .conststring
    heap2.o(i._free$realtime) refers to rt_heap_descriptor.o(.text) for __rt_heap_descriptor
    heap2.o(i._free$realtime) refers to fdtree.o(i._FDTree_Delete) for _FDTree_Delete
    heap2.o(i._free$realtime) refers to fdtree.o(i._FDTree_Insert) for _FDTree_Insert
    heap2.o(i._malloc$realtime) refers to rt_heap_descriptor.o(.text) for __rt_heap_descriptor
    heap2.o(i._malloc$realtime) refers to fdtree.o(i._FDTree_FindFirst) for _FDTree_FindFirst
    heap2.o(i._malloc$realtime) refers to init_alloc.o(.text) for __Heap_Full
    heap2.o(i._malloc$realtime) refers to fdtree.o(i._FDTree_RemoveNode) for _FDTree_RemoveNode
    heap2.o(i._malloc$realtime) refers to fdtree.o(i._FDTree_Insert) for _FDTree_Insert
    heap2.o(i._posix_memalign$realtime) refers to rt_heap_descriptor.o(.text) for __rt_heap_descriptor
    heap2.o(i._posix_memalign$realtime) refers to fdtree.o(i._FDTree_FindFirst) for _FDTree_FindFirst
    heap2.o(i._posix_memalign$realtime) refers to init_alloc.o(.text) for __Heap_Full
    heap2.o(i._posix_memalign$realtime) refers to fdtree.o(i._FDTree_RemoveNode) for _FDTree_RemoveNode
    heap2.o(i._posix_memalign$realtime) refers to fdtree.o(i._FDTree_Insert) for _FDTree_Insert
    heap2.o(i._realloc$realtime) refers to rt_heap_descriptor.o(.text) for __rt_heap_descriptor
    heap2.o(i._realloc$realtime) refers to fdtree.o(i._FDTree_Insert) for _FDTree_Insert
    heap2.o(i._realloc$realtime) refers to h1_free.o(.text) for free
    heap2.o(i._realloc$realtime) refers to h1_alloc.o(.text) for malloc
    heap2.o(i._realloc$realtime) refers to fdtree.o(i._FDTree_Delete) for _FDTree_Delete
    heap2.o(i._realloc$realtime) refers to rt_memcpy_w.o(.text) for __aeabi_memcpy4
    heap2mt.o(i._FDIterate) refers to heap2mt.o(.conststring) for .conststring
    heap2mt.o(i.___Heap_Initialize$realtime$concurrent) refers to mutex_dummy.o(.text) for _mutex_initialize
    heap2mt.o(i.___Heap_ProvideMemory$realtime$concurrent) refers to fdtree.o(i._FDTree_Delete) for _FDTree_Delete
    heap2mt.o(i.___Heap_ProvideMemory$realtime$concurrent) refers to fdtree.o(i._FDTree_Insert) for _FDTree_Insert
    heap2mt.o(i.___Heap_Stats$realtime$concurrent) refers to heap2mt.o(i._Heap2_StatsIterate) for _Heap2_StatsIterate
    heap2mt.o(i.___Heap_Valid$realtime$concurrent) refers to heap2mt.o(i._FDIterate) for _FDIterate
    heap2mt.o(i.___Heap_Valid$realtime$concurrent) refers to heap2mt.o(.conststring) for .conststring
    heap2mt.o(i._free$realtime$concurrent) refers to rt_heap_descriptor.o(.text) for __rt_heap_descriptor
    heap2mt.o(i._free$realtime$concurrent) refers to fdtree.o(i._FDTree_Delete) for _FDTree_Delete
    heap2mt.o(i._free$realtime$concurrent) refers to fdtree.o(i._FDTree_Insert) for _FDTree_Insert
    heap2mt.o(i._malloc$realtime$concurrent) refers to rt_heap_descriptor.o(.text) for __rt_heap_descriptor
    heap2mt.o(i._malloc$realtime$concurrent) refers to fdtree.o(i._FDTree_FindFirst) for _FDTree_FindFirst
    heap2mt.o(i._malloc$realtime$concurrent) refers to init_alloc.o(.text) for __Heap_Full
    heap2mt.o(i._malloc$realtime$concurrent) refers to fdtree.o(i._FDTree_RemoveNode) for _FDTree_RemoveNode
    heap2mt.o(i._malloc$realtime$concurrent) refers to fdtree.o(i._FDTree_Insert) for _FDTree_Insert
    heap2mt.o(i._posix_memalign$realtime$concurrent) refers to rt_heap_descriptor.o(.text) for __rt_heap_descriptor
    heap2mt.o(i._posix_memalign$realtime$concurrent) refers to fdtree.o(i._FDTree_FindFirst) for _FDTree_FindFirst
    heap2mt.o(i._posix_memalign$realtime$concurrent) refers to init_alloc.o(.text) for __Heap_Full
    heap2mt.o(i._posix_memalign$realtime$concurrent) refers to fdtree.o(i._FDTree_RemoveNode) for _FDTree_RemoveNode
    heap2mt.o(i._posix_memalign$realtime$concurrent) refers to fdtree.o(i._FDTree_Insert) for _FDTree_Insert
    heap2mt.o(i._realloc$realtime$concurrent) refers to rt_heap_descriptor.o(.text) for __rt_heap_descriptor
    heap2mt.o(i._realloc$realtime$concurrent) refers to fdtree.o(i._FDTree_Insert) for _FDTree_Insert
    heap2mt.o(i._realloc$realtime$concurrent) refers to h1_free.o(.text) for free
    heap2mt.o(i._realloc$realtime$concurrent) refers to h1_alloc.o(.text) for malloc
    heap2mt.o(i._realloc$realtime$concurrent) refers to fdtree.o(i._FDTree_Delete) for _FDTree_Delete
    heap2mt.o(i._realloc$realtime$concurrent) refers to rt_memcpy_w.o(.text) for __aeabi_memcpy4
    _printf_intcommon.o(.text) refers (Weak) to _printf_pad.o(.text) for _printf_pre_padding
    _printf_intcommon.o(.text) refers (Weak) to _printf_pad.o(.text) for _printf_pre_padding
    _printf_intcommon.o(.text) refers (Weak) to _printf_pad.o(.text) for _printf_post_padding
    _printf_fp_dec.o(.text) refers (Special) to usenofp.o(x$fpl$usenofp) for __I$use$fp
    _printf_fp_dec.o(.text) refers (Special) to lc_numeric_c.o(locale$$code) for _get_lc_numeric
    _printf_fp_dec.o(.text) refers to bigflt0.o(.text) for _btod_etento
    _printf_fp_dec.o(.text) refers to btod.o(CL$$btod_d2e) for _btod_d2e
    _printf_fp_dec.o(.text) refers to btod.o(CL$$btod_ediv) for _btod_ediv
    _printf_fp_dec.o(.text) refers to btod.o(CL$$btod_emul) for _btod_emul
    _printf_fp_dec.o(.text) refers to lludiv10.o(.text) for _ll_udiv10
    _printf_fp_dec.o(.text) refers to fpclassify.o(i.__ARM_fpclassify) for __ARM_fpclassify
    _printf_fp_dec.o(.text) refers to _printf_fp_infnan.o(.text) for _printf_fp_infnan
    _printf_fp_dec.o(.text) refers (Weak) to _printf_pad.o(.text) for _printf_pre_padding
    _printf_fp_dec.o(.text) refers (Weak) to _printf_pad.o(.text) for _printf_pre_padding
    _printf_fp_dec.o(.text) refers to rt_locale.o(.text) for __rt_locale
    _printf_fp_dec.o(.text) refers (Weak) to _printf_pad.o(.text) for _printf_post_padding
    _printf_char_common.o(.text) refers to __printf_flags_ss_wp.o(.text) for __printf
    _printf_char.o(.text) refers (Weak) to _printf_str.o(.text) for _printf_str
    _printf_char_file.o(.text) refers to _printf_char_common.o(.text) for _printf_char_common
    _printf_char_file.o(.text) refers to ferror.o(.text) for ferror
    _printf_char_file.o(.text) refers to fputc.o(i.fputc) for fputc
    _printf_wctomb.o(.text) refers (Special) to _printf_wchar.o(.text) for _printf_lcs_common
    _printf_wctomb.o(.text) refers to _wcrtomb.o(.text) for _wcrtomb
    _printf_wctomb.o(.text) refers (Weak) to _printf_pad.o(.text) for _printf_pre_padding
    _printf_wctomb.o(.text) refers (Weak) to _printf_pad.o(.text) for _printf_post_padding
    _printf_wctomb.o(.text) refers to _printf_wctomb.o(.constdata) for .constdata
    _printf_wctomb.o(.constdata) refers (Special) to _printf_wchar.o(.text) for _printf_lcs_common
    _printf_longlong_dec.o(.text) refers to lludiv10.o(.text) for _ll_udiv10
    _printf_longlong_dec.o(.text) refers to _printf_intcommon.o(.text) for _printf_int_common
    _printf_oct_ll.o(.text) refers to _printf_intcommon.o(.text) for _printf_int_common
    _printf_oct_int.o(.text) refers (Weak) to _printf_truncate.o(.text) for _printf_truncate_unsigned
    _printf_oct_int.o(.text) refers to _printf_intcommon.o(.text) for _printf_int_common
    _printf_oct_int_ll.o(.text) refers to _printf_intcommon.o(.text) for _printf_int_common
    _printf_oct_int_ll.o(.text) refers (Weak) to _printf_truncate.o(.text) for _printf_truncate_unsigned
    _printf_hex_ll.o(.text) refers to _printf_intcommon.o(.text) for _printf_int_common
    _printf_hex_ll.o(.text) refers to _printf_hex_ll.o(.constdata) for .constdata
    _printf_hex_int.o(.text) refers (Weak) to _printf_truncate.o(.text) for _printf_truncate_unsigned
    _printf_hex_int.o(.text) refers to _printf_intcommon.o(.text) for _printf_int_common
    _printf_hex_int.o(.text) refers to _printf_hex_int.o(.constdata) for .constdata
    _printf_hex_int_ll.o(.text) refers to _printf_intcommon.o(.text) for _printf_int_common
    _printf_hex_int_ll.o(.text) refers (Weak) to _printf_truncate.o(.text) for _printf_truncate_unsigned
    _printf_hex_int_ll.o(.text) refers to _printf_hex_int_ll.o(.constdata) for .constdata
    _printf_hex_ptr.o(.text) refers to _printf_intcommon.o(.text) for _printf_int_common
    _printf_hex_ptr.o(.text) refers to _printf_hex_ptr.o(.constdata) for .constdata
    _printf_hex_int_ptr.o(.text) refers to _printf_intcommon.o(.text) for _printf_int_common
    _printf_hex_int_ptr.o(.text) refers (Weak) to _printf_truncate.o(.text) for _printf_truncate_unsigned
    _printf_hex_int_ptr.o(.text) refers to _printf_hex_int_ptr.o(.constdata) for .constdata
    _printf_hex_ll_ptr.o(.text) refers to _printf_intcommon.o(.text) for _printf_int_common
    _printf_hex_ll_ptr.o(.text) refers to _printf_hex_ll_ptr.o(.constdata) for .constdata
    _printf_hex_int_ll_ptr.o(.text) refers to _printf_intcommon.o(.text) for _printf_int_common
    _printf_hex_int_ll_ptr.o(.text) refers (Weak) to _printf_truncate.o(.text) for _printf_truncate_unsigned
    _printf_hex_int_ll_ptr.o(.text) refers to _printf_hex_int_ll_ptr.o(.constdata) for .constdata
    _printf_c.o(.ARM.Collect$$_printf_percent$$00000013) refers (Weak) to _printf_char.o(.text) for _printf_char
    _printf_n.o(.ARM.Collect$$_printf_percent$$00000001) refers (Weak) to _printf_charcount.o(.text) for _printf_charcount
    _printf_x.o(.ARM.Collect$$_printf_percent$$0000000C) refers (Weak) to _printf_hex_int_ll_ptr.o(.text) for _printf_int_hex
    _printf_p.o(.ARM.Collect$$_printf_percent$$00000002) refers (Weak) to _printf_hex_int_ll_ptr.o(.text) for _printf_hex_ptr
    _printf_o.o(.ARM.Collect$$_printf_percent$$0000000B) refers (Weak) to _printf_oct_int_ll.o(.text) for _printf_int_oct
    _printf_i.o(.ARM.Collect$$_printf_percent$$00000008) refers (Weak) to _printf_dec.o(.text) for _printf_int_dec
    _printf_u.o(.ARM.Collect$$_printf_percent$$0000000A) refers (Weak) to _printf_dec.o(.text) for _printf_int_dec
    _printf_e.o(.ARM.Collect$$_printf_percent$$00000004) refers (Weak) to printf1.o(x$fpl$printf1) for _printf_fp_dec
    _printf_g.o(.ARM.Collect$$_printf_percent$$00000005) refers (Weak) to printf1.o(x$fpl$printf1) for _printf_fp_dec
    _printf_a.o(.ARM.Collect$$_printf_percent$$00000006) refers (Weak) to printf2.o(x$fpl$printf2) for _printf_fp_hex
    _printf_lli.o(.ARM.Collect$$_printf_percent$$0000000D) refers (Special) to _printf_ll.o(.ARM.Collect$$_printf_percent$$00000007) for _printf_ll
    _printf_lli.o(.ARM.Collect$$_printf_percent$$0000000D) refers (Weak) to _printf_longlong_dec.o(.text) for _printf_longlong_dec
    _printf_lld.o(.ARM.Collect$$_printf_percent$$0000000E) refers (Special) to _printf_ll.o(.ARM.Collect$$_printf_percent$$00000007) for _printf_ll
    _printf_lld.o(.ARM.Collect$$_printf_percent$$0000000E) refers (Weak) to _printf_longlong_dec.o(.text) for _printf_longlong_dec
    _printf_llu.o(.ARM.Collect$$_printf_percent$$0000000F) refers (Special) to _printf_ll.o(.ARM.Collect$$_printf_percent$$00000007) for _printf_ll
    _printf_llu.o(.ARM.Collect$$_printf_percent$$0000000F) refers (Weak) to _printf_longlong_dec.o(.text) for _printf_longlong_dec
    _printf_lc.o(.ARM.Collect$$_printf_percent$$00000015) refers (Special) to _printf_l.o(.ARM.Collect$$_printf_percent$$00000012) for _printf_l
    _printf_lc.o(.ARM.Collect$$_printf_percent$$00000015) refers (Weak) to _printf_wchar.o(.text) for _printf_wchar
    _printf_ls.o(.ARM.Collect$$_printf_percent$$00000016) refers (Special) to _printf_l.o(.ARM.Collect$$_printf_percent$$00000012) for _printf_l
    _printf_ls.o(.ARM.Collect$$_printf_percent$$00000016) refers (Weak) to _printf_wchar.o(.text) for _printf_wstring
    _printf_llo.o(.ARM.Collect$$_printf_percent$$00000010) refers (Special) to _printf_ll.o(.ARM.Collect$$_printf_percent$$00000007) for _printf_ll
    _printf_llo.o(.ARM.Collect$$_printf_percent$$00000010) refers (Weak) to _printf_oct_int_ll.o(.text) for _printf_ll_oct
    _printf_llx.o(.ARM.Collect$$_printf_percent$$00000011) refers (Special) to _printf_ll.o(.ARM.Collect$$_printf_percent$$00000007) for _printf_ll
    _printf_llx.o(.ARM.Collect$$_printf_percent$$00000011) refers (Weak) to _printf_hex_int_ll_ptr.o(.text) for _printf_ll_hex
    scanf_char.o(.text) refers to _scanf.o(.text) for __vfscanf
    scanf_char.o(.text) refers to isspace.o(.text) for isspace
    fseek.o(.text) refers to retarget.o(i._sys_istty) for _sys_istty
    fseek.o(.text) refers to ftell.o(.text) for _ftell_internal
    fseek.o(.text) refers to retarget.o(i._sys_flen) for _sys_flen
    fseek.o(.text) refers to stdio.o(.text) for _seterr
    stdio.o(.text) refers to retarget.o(i._sys_seek) for _sys_seek
    stdio.o(.text) refers to retarget.o(i._sys_write) for _sys_write
    streamlock.o(.data) refers (Special) to initio.o(.text) for _initio
    initio.o(.text) refers (Special) to libinit2.o(.ARM.Collect$$libinit$$00000022) for __rt_lib_init_stdio_2
    initio.o(.text) refers (Special) to libshutdown2.o(.ARM.Collect$$libshutdown$$00000003) for __rt_lib_shutdown_stdio_2
    initio.o(.text) refers to rt_memclr_w.o(.text) for __aeabi_memclr4
    initio.o(.text) refers to fopen.o(.text) for freopen
    initio.o(.text) refers to defsig_rtred_outer.o(.text) for __rt_SIGRTRED
    initio.o(.text) refers to setvbuf.o(.text) for setvbuf
    initio.o(.text) refers to fclose.o(.text) for _fclose_internal
    initio.o(.text) refers to h1_free.o(.text) for free
    initio.o(.text) refers to stdio_streams.o(.bss) for __stdin
    initio.o(.text) refers to stdio_streams.o(.bss) for __stdout
    initio.o(.text) refers to stdio_streams.o(.bss) for __stderr
    initio.o(.text) refers to stdio_streams.o(.data) for __aeabi_stdin
    initio.o(.text) refers to stdio_streams.o(.data) for __aeabi_stdout
    initio.o(.text) refers to stdio_streams.o(.data) for __aeabi_stderr
    initio.o(.text) refers to retarget.o(.constdata) for __stdin_name
    initio_locked.o(.text) refers (Special) to libinit2.o(.ARM.Collect$$libinit$$00000022) for __rt_lib_init_stdio_2
    initio_locked.o(.text) refers (Special) to libshutdown2.o(.ARM.Collect$$libshutdown$$00000003) for __rt_lib_shutdown_stdio_2
    initio_locked.o(.text) refers to rt_memclr_w.o(.text) for __aeabi_memclr4
    initio_locked.o(.text) refers to fopen.o(.text) for freopen
    initio_locked.o(.text) refers to defsig_rtred_outer.o(.text) for __rt_SIGRTRED
    initio_locked.o(.text) refers to setvbuf.o(.text) for setvbuf
    initio_locked.o(.text) refers to fclose.o(.text) for _fclose_internal
    initio_locked.o(.text) refers to h1_free.o(.text) for free
    initio_locked.o(.text) refers to stdio_streams.o(.bss) for __stdin
    initio_locked.o(.text) refers to stdio_streams.o(.bss) for __stdout
    initio_locked.o(.text) refers to stdio_streams.o(.bss) for __stderr
    initio_locked.o(.text) refers to stdio_streams.o(.data) for __aeabi_stdin
    initio_locked.o(.text) refers to stdio_streams.o(.data) for __aeabi_stdout
    initio_locked.o(.text) refers to stdio_streams.o(.data) for __aeabi_stderr
    initio_locked.o(.text) refers to streamlock.o(.data) for _stream_list_lock
    initio_locked.o(.text) refers to retarget.o(.constdata) for __stdin_name
    defsig_pvfn_outer.o(.text) refers to defsig_pvfn_inner.o(.text) for __rt_SIGPVFN_inner
    defsig_pvfn_outer.o(.text) refers to defsig_exit.o(.text) for __sig_exit
    defsig_pvfn_formal.o(.text) refers to rt_raise.o(.text) for __rt_raise
    rt_memclr.o(.text) refers to rt_memclr_w.o(.text) for _memset_w
    localtime_internal.o(.text) refers to rt_memclr_w.o(.text) for __aeabi_memclr4
    localtime_internal.o(.text) refers to _monlen.o(.constdata) for _monlen
    libinit2.o(.ARM.Collect$$libinit$$00000001) refers to fpinit.o(x$fpl$fpinit) for _fp_init
    libinit2.o(.ARM.Collect$$libinit$$00000003) refers (Weak) to init_alloc.o(.text) for _init_alloc
    libinit2.o(.ARM.Collect$$libinit$$0000000D) refers (Weak) to rt_locale.o(.text) for __rt_locale
    libinit2.o(.ARM.Collect$$libinit$$0000000E) refers to libinit2.o(.ARM.Collect$$libinit$$0000000D) for .ARM.Collect$$libinit$$0000000D
    libinit2.o(.ARM.Collect$$libinit$$00000010) refers to libinit2.o(.ARM.Collect$$libinit$$0000000D) for .ARM.Collect$$libinit$$0000000D
    libinit2.o(.ARM.Collect$$libinit$$00000010) refers (Weak) to lc_ctype_c.o(locale$$code) for _get_lc_ctype
    libinit2.o(.ARM.Collect$$libinit$$00000012) refers to libinit2.o(.ARM.Collect$$libinit$$0000000D) for .ARM.Collect$$libinit$$0000000D
    libinit2.o(.ARM.Collect$$libinit$$00000014) refers to libinit2.o(.ARM.Collect$$libinit$$0000000D) for .ARM.Collect$$libinit$$0000000D
    libinit2.o(.ARM.Collect$$libinit$$00000014) refers (Weak) to lc_numeric_c.o(locale$$code) for _get_lc_numeric
    libinit2.o(.ARM.Collect$$libinit$$00000016) refers to libinit2.o(.ARM.Collect$$libinit$$0000000D) for .ARM.Collect$$libinit$$0000000D
    libinit2.o(.ARM.Collect$$libinit$$00000022) refers (Weak) to initio.o(.text) for _initio
    libinit2.o(.ARM.Collect$$libinit$$00000024) refers to argv_veneer.o(.emb_text) for __ARM_argv_veneer
    libinit2.o(.ARM.Collect$$libinit$$00000025) refers to argv_veneer.o(.emb_text) for __ARM_argv_veneer
    libinit2.o(.ARM.Collect$$libinit$$0000002F) refers (Weak) to init_aeabi.o(.text) for __cpp_initialize__aeabi_
    libshutdown2.o(.ARM.Collect$$libshutdown$$00000001) refers (Weak) to cxa_finalize.o(i.__cxa_finalize) for __cxa_finalize
    libshutdown2.o(.ARM.Collect$$libshutdown$$00000002) refers (Weak) to initio.o(.text) for _terminateio
    libshutdown2.o(.ARM.Collect$$libshutdown$$0000000C) refers (Weak) to term_alloc.o(.text) for _terminate_alloc
    unwind_pr0.o(.text) refers to unwind_prcommon.o(.text) for __ARM_unwind_cpp_prcommon
    arm_callunex_noexceptions.o(.ARM.exidx) refers to arm_callunex_noexceptions.o(.text) for .text
    arm_newhandler_noexceptions.o(.text) refers to arm_exceptions_terminate.o(.text) for std::terminate()
    arm_newhandler_noexceptions.o(.ARM.exidx) refers to arm_newhandler_noexceptions.o(.text) for .text
    bad_alloc_dtor.o(i._ZNSt9bad_allocD0Ev) refers to bad_alloc_dtor.o(i._ZNSt9bad_allocD1Ev) for std::bad_alloc::~bad_alloc()
    bad_alloc_dtor.o(i._ZNSt9bad_allocD0Ev) refers to delete.o(i._ZdlPv) for operator delete (void*)
    bad_alloc_dtor.o(.ARM.exidx) refers to bad_alloc_dtor.o(i._ZNSt9bad_allocD1Ev) for i._ZNSt9bad_allocD1Ev
    bad_alloc_dtor.o(.ARM.exidx) refers to bad_alloc_dtor.o(i._ZNSt9bad_allocD0Ev) for i._ZNSt9bad_allocD0Ev
    cxa_atexit.o(i.__cxa_atexit) refers (Special) to libshutdown2.o(.ARM.Collect$$libshutdown$$00000001) for __rt_lib_shutdown_cpp_1
    cxa_atexit.o(i.__cxa_atexit) refers to aeabi_atexit.o(i.__aeabi_atexit) for __aeabi_atexit
    cxa_atexit.o(.ARM.exidx) refers (Special) to libshutdown2.o(.ARM.Collect$$libshutdown$$00000001) for __rt_lib_shutdown_cpp_1
    cxa_atexit.o(.ARM.exidx) refers to cxa_atexit.o(i.__cxa_atexit) for i.__cxa_atexit
    cxa_finalize.o(i.__cxa_finalize) refers (Special) to libshutdown2.o(.ARM.Collect$$libshutdown$$00000001) for __rt_lib_shutdown_cpp_1
    cxa_finalize.o(i.__cxa_finalize) refers to rt_ddtor_pointer_addr.o(.text) for __rt_ddtor_pointer_addr
    cxa_finalize.o(i.__cxa_finalize) refers to h1_free.o(.text) for free
    cxa_finalize.o(.ARM.exidx) refers (Special) to libshutdown2.o(.ARM.Collect$$libshutdown$$00000001) for __rt_lib_shutdown_cpp_1
    cxa_finalize.o(.ARM.exidx) refers to cxa_finalize.o(i.__cxa_finalize) for i.__cxa_finalize
    type_info_dtor.o(.ARM.exidx) refers to type_info_dtor.o(i._ZNSt9type_infoD1Ev) for i._ZNSt9type_infoD1Ev
    type_info_dtor.o(.ARM.exidx) refers to type_info_dtor.o(i._ZNSt9type_infoD0Ev) for i._ZNSt9type_infoD0Ev
    dcmpi.o(x$fpl$dcmpinf) refers (Special) to usenofp.o(x$fpl$usenofp) for __I$use$fp
    dnaninf.o(x$fpl$dnaninf) refers (Special) to usenofp.o(x$fpl$usenofp) for __I$use$fp
    dretinf.o(x$fpl$dretinf) refers (Special) to usenofp.o(x$fpl$usenofp) for __I$use$fp
    drleqf.o(x$fpl$drleqf) refers (Special) to usenofp.o(x$fpl$usenofp) for __I$use$fp
    drleqf.o(x$fpl$drleqf) refers to dleqf.o(x$fpl$dleqf) for __fpl_dcmple_InfNaN
    fnaninf.o(x$fpl$fnaninf) refers (Special) to usenofp.o(x$fpl$usenofp) for __I$use$fp
    printf2.o(x$fpl$printf2) refers to _printf_fp_hex.o(.text) for _printf_fp_hex_real
    printf2b.o(x$fpl$printf2) refers to _printf_fp_hex.o(.text) for _printf_fp_hex_real
    libspace.o(.text) refers to libspace.o(.bss) for __libspace_start
    rtentry2.o(.ARM.Collect$$rtentry$$00000008) refers to boardinit2.o(.text) for _platform_post_stackheap_init
    rtentry2.o(.ARM.Collect$$rtentry$$0000000A) refers to libinit.o(.ARM.Collect$$libinit$$00000000) for __rt_lib_init
    rtentry2.o(.ARM.Collect$$rtentry$$0000000B) refers to boardinit3.o(.text) for _platform_post_lib_init
    rtentry2.o(.ARM.Collect$$rtentry$$0000000D) refers to retarget.o(i.$Sub$$main) for main
    rtentry2.o(.ARM.Collect$$rtentry$$0000000D) refers to exit.o(i.exit) for exit
    rtentry2.o(.ARM.exidx) refers to rtentry2.o(.ARM.Collect$$rtentry$$00000001) for .ARM.Collect$$rtentry$$00000001
    rtentry2.o(.ARM.exidx) refers to rtentry2.o(.ARM.Collect$$rtentry$$00000008) for .ARM.Collect$$rtentry$$00000008
    rtentry2.o(.ARM.exidx) refers to rtentry2.o(.ARM.Collect$$rtentry$$0000000A) for .ARM.Collect$$rtentry$$0000000A
    rtentry2.o(.ARM.exidx) refers to rtentry2.o(.ARM.Collect$$rtentry$$0000000B) for .ARM.Collect$$rtentry$$0000000B
    rtentry2.o(.ARM.exidx) refers to rtentry2.o(.ARM.Collect$$rtentry$$0000000D) for .ARM.Collect$$rtentry$$0000000D
    rtentry4.o(.ARM.Collect$$rtentry$$00000004) refers to sys.o(i.__user_setup_stackheap) for __user_setup_stackheap
    rtentry4.o(.ARM.exidx) refers to rtentry4.o(.ARM.Collect$$rtentry$$00000004) for .ARM.Collect$$rtentry$$00000004
    rt_raise.o(.text) refers to __raise.o(.text) for __raise
    rt_raise.o(.text) refers to sys_exit.o(.text) for _sys_exit
    rt_heap_descriptor.o(.text) refers to rt_heap_descriptor.o(.bss) for __rt_heap_descriptor_data
    rt_heap_descriptor_intlibspace.o(.text) refers to libspace.o(.bss) for __libspace_start
    rt_locale.o(.text) refers to rt_locale.o(.bss) for __rt_locale_data
    rt_locale_intlibspace.o(.text) refers to libspace.o(.bss) for __libspace_start
    init_alloc.o(.text) refers (Special) to hguard.o(.text) for __heap$guard
    init_alloc.o(.text) refers (Special) to libinit2.o(.ARM.Collect$$libinit$$00000003) for __rt_lib_init_heap_2
    init_alloc.o(.text) refers (Special) to maybetermalloc1.o(.emb_text) for _maybe_terminate_alloc
    init_alloc.o(.text) refers to heapauxa.o(.text) for __rt_heap_expand
    init_alloc.o(.text) refers to h1_extend.o(.text) for __Heap_ProvideMemory
    init_alloc.o(.text) refers to defsig_rtmem_outer.o(.text) for __rt_SIGRTMEM
    init_alloc.o(.text) refers to rt_heap_descriptor.o(.text) for __rt_heap_descriptor
    init_alloc.o(.text) refers to h1_init.o(.text) for __Heap_Initialize
    h1_init_mt.o(.text) refers to mutex_dummy.o(.text) for _mutex_initialize
    isspace.o(.text) refers to rt_ctype_table.o(.text) for __rt_ctype_table
    _printf_fp_hex.o(.text) refers (Special) to usenofp.o(x$fpl$usenofp) for __I$use$fp
    _printf_fp_hex.o(.text) refers to fpclassify.o(i.__ARM_fpclassify) for __ARM_fpclassify
    _printf_fp_hex.o(.text) refers to _printf_fp_infnan.o(.text) for _printf_fp_infnan
    _printf_fp_hex.o(.text) refers (Weak) to _printf_pad.o(.text) for _printf_pre_padding
    _printf_fp_hex.o(.text) refers (Weak) to _printf_pad.o(.text) for _printf_pre_padding
    _printf_fp_hex.o(.text) refers (Weak) to _printf_pad.o(.text) for _printf_post_padding
    _printf_fp_hex.o(.text) refers to _printf_fp_hex.o(.constdata) for .constdata
    _printf_fp_hex.o(.constdata) refers (Special) to usenofp.o(x$fpl$usenofp) for __I$use$fp
    _printf_fp_infnan.o(.text) refers (Weak) to _printf_pad.o(.text) for _printf_pre_padding
    _printf_fp_infnan.o(.text) refers (Weak) to _printf_pad.o(.text) for _printf_post_padding
    _printf_wchar.o(.text) refers (Weak) to _printf_wctomb.o(.text) for _printf_wctomb
    _scanf.o(.text) refers (Weak) to _scanf_int.o(.text) for _scanf_int
    bigflt0.o(.text) refers (Special) to usenofp.o(x$fpl$usenofp) for __I$use$fp
    bigflt0.o(.text) refers to btod.o(CL$$btod_emul) for _btod_emul
    bigflt0.o(.text) refers to btod.o(CL$$btod_ediv) for _btod_ediv
    bigflt0.o(.text) refers to bigflt0.o(.constdata) for .constdata
    bigflt0.o(.constdata) refers (Special) to usenofp.o(x$fpl$usenofp) for __I$use$fp
    btod.o(CL$$btod_d2e) refers (Special) to usenofp.o(x$fpl$usenofp) for __I$use$fp
    btod.o(CL$$btod_d2e) refers to btod.o(CL$$btod_d2e_norm_op1) for _d2e_norm_op1
    btod.o(CL$$btod_d2e_norm_op1) refers (Special) to usenofp.o(x$fpl$usenofp) for __I$use$fp
    btod.o(CL$$btod_d2e_norm_op1) refers to btod.o(CL$$btod_d2e_denorm_low) for _d2e_denorm_low
    btod.o(CL$$btod_d2e_denorm_low) refers (Special) to usenofp.o(x$fpl$usenofp) for __I$use$fp
    btod.o(CL$$btod_emul) refers (Special) to usenofp.o(x$fpl$usenofp) for __I$use$fp
    btod.o(CL$$btod_emul) refers to btod.o(CL$$btod_mult_common) for __btod_mult_common
    btod.o(CL$$btod_emul) refers to btod.o(CL$$btod_e2e) for _e2e
    btod.o(CL$$btod_ediv) refers (Special) to usenofp.o(x$fpl$usenofp) for __I$use$fp
    btod.o(CL$$btod_ediv) refers to btod.o(CL$$btod_div_common) for __btod_div_common
    btod.o(CL$$btod_ediv) refers to btod.o(CL$$btod_e2e) for _e2e
    btod.o(CL$$btod_emuld) refers (Special) to usenofp.o(x$fpl$usenofp) for __I$use$fp
    btod.o(CL$$btod_emuld) refers to btod.o(CL$$btod_mult_common) for __btod_mult_common
    btod.o(CL$$btod_emuld) refers to btod.o(CL$$btod_e2d) for _e2d
    btod.o(CL$$btod_edivd) refers (Special) to usenofp.o(x$fpl$usenofp) for __I$use$fp
    btod.o(CL$$btod_edivd) refers to btod.o(CL$$btod_div_common) for __btod_div_common
    btod.o(CL$$btod_edivd) refers to btod.o(CL$$btod_e2d) for _e2d
    btod.o(CL$$btod_e2e) refers (Special) to usenofp.o(x$fpl$usenofp) for __I$use$fp
    btod.o(CL$$btod_e2d) refers (Special) to usenofp.o(x$fpl$usenofp) for __I$use$fp
    btod.o(CL$$btod_e2d) refers to btod.o(CL$$btod_e2e) for _e2e
    btod.o(CL$$btod_mult_common) refers (Special) to usenofp.o(x$fpl$usenofp) for __I$use$fp
    btod.o(CL$$btod_div_common) refers (Special) to usenofp.o(x$fpl$usenofp) for __I$use$fp
    fputc.o(i.fputc) refers to flsbuf.o(.text) for __flsbuf_byte
    ftell.o(.text) refers to rt_errno_addr.o(.text) for __aeabi_errno_addr
    _wcrtomb.o(.text) refers to rt_ctype_table.o(.text) for __rt_ctype_table
    lc_numeric_c.o(locale$$data) refers (Special) to libinit2.o(.ARM.Collect$$libinit$$00000014) for __rt_lib_init_lc_numeric_2
    lc_numeric_c.o(locale$$code) refers (Special) to libinit2.o(.ARM.Collect$$libinit$$00000014) for __rt_lib_init_lc_numeric_2
    lc_numeric_c.o(locale$$code) refers to strcmpv7m.o(.text) for strcmp
    lc_numeric_c.o(locale$$code) refers to lc_numeric_c.o(locale$$data) for __lcnum_c_name
    defsig_exit.o(.text) refers to sys_exit.o(.text) for _sys_exit
    defsig_rtred_outer.o(.text) refers to defsig_rtred_inner.o(.text) for __rt_SIGRTRED_inner
    defsig_rtred_outer.o(.text) refers to defsig_exit.o(.text) for __sig_exit
    defsig_rtred_formal.o(.text) refers to rt_raise.o(.text) for __rt_raise
    defsig_pvfn_inner.o(.text) refers to defsig_general.o(.text) for __default_signal_display
    _get_argv.o(.text) refers (Special) to hrguard.o(.text) for __heap_region$guard
    _get_argv.o(.text) refers to h1_alloc.o(.text) for malloc
    _get_argv.o(.text) refers to defsig_rtmem_outer.o(.text) for __rt_SIGRTMEM
    _get_argv.o(.text) refers to retarget.o(i._sys_command_string) for _sys_command_string
    argv_veneer.o(.emb_text) refers to no_argv.o(.text) for __ARM_get_argv
    unwind_prcommon.o(.text) refers to unwinder.o(.text) for _Unwind_VRS_Get
    unwind_prcommon.o(.text) refers to unwind_activity.o(.emb_text) for _Unwind_Activity
    unwind_prcommon.o(.text) refers (Weak) to arm_callunex_noexceptions.o(.text) for __cxa_call_unexpected
    unwind_prcommon.o(.text) refers (Weak) to arm_callunex_noexceptions.o(.text) for __cxa_call_unexpected
    arm_exceptions_terminate.o(.text) refers to arm_exceptions_globs.o(.text) for __cxa_get_globals
    arm_exceptions_terminate.o(.text) refers to abort.o(.text) for abort
    arm_exceptions_terminate.o(.ARM.exidx) refers to arm_exceptions_terminate.o(.text) for .text
    bad_alloc_what.o(.ARM.exidx) refers to bad_alloc_what.o(i._ZNKSt9bad_alloc4whatEv) for i._ZNKSt9bad_alloc4whatEv
    exception_dtor.o(i._ZNSt9exceptionD0Ev) refers to delete.o(i._ZdlPv) for operator delete (void*)
    exception_dtor.o(.ARM.exidx) refers to exception_dtor.o(i._ZNSt9exceptionD1Ev) for i._ZNSt9exceptionD1Ev
    exception_dtor.o(.ARM.exidx) refers to exception_dtor.o(i._ZNSt9exceptionD0Ev) for i._ZNSt9exceptionD0Ev
    istatus.o(x$fpl$ieeestatus) refers (Special) to usenofp.o(x$fpl$usenofp) for __I$use$fp
    fpclassify.o(i.__ARM_fpclassify) refers (Special) to usenofp.o(x$fpl$usenofp) for __I$use$fp
    sys_exit.o(.text) refers (Special) to use_no_semi.o(.text) for __I$use$semihosting
    sys_exit.o(.text) refers (Special) to indicate_semi.o(.text) for __semihosting_library_function
    rt_ctype_table.o(.text) refers to rt_locale.o(.text) for __rt_locale
    rt_ctype_table.o(.text) refers to lc_ctype_c.o(locale$$code) for _get_lc_ctype
    rt_errno_addr.o(.text) refers to rt_errno_addr.o(.bss) for __aeabi_errno_addr_data
    rt_errno_addr_intlibspace.o(.text) refers to libspace.o(.bss) for __libspace_start
    maybetermalloc2.o(.emb_text) refers (Special) to term_alloc.o(.text) for _terminate_alloc
    h1_extend.o(.text) refers to h1_free.o(.text) for free
    h1_extend_mt.o(.text) refers to h1_free_mt.o(.text) for _free_internal
    flsbuf.o(.text) refers to stdio.o(.text) for _deferredlazyseek
    flsbuf.o(.text) refers to retarget.o(i._sys_flen) for _sys_flen
    flsbuf.o(.text) refers to retarget.o(i._sys_istty) for _sys_istty
    flsbuf.o(.text) refers to h1_alloc.o(.text) for malloc
    abort.o(.text) refers to defsig_abrt_outer.o(.text) for __rt_SIGABRT
    abort.o(.text) refers to sys_exit.o(.text) for _sys_exit
    __raise.o(.text) refers to defsig.o(CL$$defsig) for __default_signal_handler
    defsig_general.o(.text) refers to sys_wrch.o(.text) for _ttywrch
    defsig_rtred_inner.o(.text) refers to defsig_general.o(.text) for __default_signal_display
    defsig_rtmem_outer.o(.text) refers to defsig_rtmem_inner.o(.text) for __rt_SIGRTMEM_inner
    defsig_rtmem_outer.o(.text) refers to defsig_exit.o(.text) for __sig_exit
    defsig_rtmem_formal.o(.text) refers to rt_raise.o(.text) for __rt_raise
    heapauxa.o(.text) refers to heapauxa.o(.data) for .data
    _get_argv_nomalloc.o(.text) refers (Special) to hrguard.o(.text) for __heap_region$guard
    _get_argv_nomalloc.o(.text) refers to defsig_rtmem_outer.o(.text) for __rt_SIGRTMEM
    _get_argv_nomalloc.o(.text) refers to retarget.o(i._sys_command_string) for _sys_command_string
    libinit.o(.ARM.Collect$$libinit$$00000000) refers (Special) to libinit2.o(.ARM.Collect$$libinit$$0000002C) for __rt_lib_init_alloca_1
    libinit.o(.ARM.Collect$$libinit$$00000000) refers (Special) to libinit2.o(.ARM.Collect$$libinit$$0000002A) for __rt_lib_init_argv_1
    libinit.o(.ARM.Collect$$libinit$$00000000) refers (Special) to libinit2.o(.ARM.Collect$$libinit$$00000019) for __rt_lib_init_atexit_1
    libinit.o(.ARM.Collect$$libinit$$00000000) refers (Special) to libinit2.o(.ARM.Collect$$libinit$$0000001F) for __rt_lib_init_clock_1
    libinit.o(.ARM.Collect$$libinit$$00000000) refers (Special) to libinit2.o(.ARM.Collect$$libinit$$00000030) for __rt_lib_init_cpp_1
    libinit.o(.ARM.Collect$$libinit$$00000000) refers (Special) to libinit2.o(.ARM.Collect$$libinit$$0000002E) for __rt_lib_init_exceptions_1
    libinit.o(.ARM.Collect$$libinit$$00000000) refers (Special) to libinit2.o(.ARM.Collect$$libinit$$00000001) for __rt_lib_init_fp_1
    libinit.o(.ARM.Collect$$libinit$$00000000) refers (Special) to libinit2.o(.ARM.Collect$$libinit$$0000001D) for __rt_lib_init_fp_trap_1
    libinit.o(.ARM.Collect$$libinit$$00000000) refers (Special) to libinit2.o(.ARM.Collect$$libinit$$00000021) for __rt_lib_init_getenv_1
    libinit.o(.ARM.Collect$$libinit$$00000000) refers (Special) to libinit2.o(.ARM.Collect$$libinit$$00000008) for __rt_lib_init_heap_1
    libinit.o(.ARM.Collect$$libinit$$00000000) refers (Special) to libinit2.o(.ARM.Collect$$libinit$$0000000F) for __rt_lib_init_lc_collate_1
    libinit.o(.ARM.Collect$$libinit$$00000000) refers (Special) to libinit2.o(.ARM.Collect$$libinit$$00000011) for __rt_lib_init_lc_ctype_1
    libinit.o(.ARM.Collect$$libinit$$00000000) refers (Special) to libinit2.o(.ARM.Collect$$libinit$$00000013) for __rt_lib_init_lc_monetary_1
    libinit.o(.ARM.Collect$$libinit$$00000000) refers (Special) to libinit2.o(.ARM.Collect$$libinit$$00000015) for __rt_lib_init_lc_numeric_1
    libinit.o(.ARM.Collect$$libinit$$00000000) refers (Special) to libinit2.o(.ARM.Collect$$libinit$$00000017) for __rt_lib_init_lc_time_1
    libinit.o(.ARM.Collect$$libinit$$00000000) refers (Special) to libinit2.o(.ARM.Collect$$libinit$$0000000C) for __rt_lib_init_rand_1
    libinit.o(.ARM.Collect$$libinit$$00000000) refers (Special) to libinit2.o(.ARM.Collect$$libinit$$00000031) for __rt_lib_init_return
    libinit.o(.ARM.Collect$$libinit$$00000000) refers (Special) to libinit2.o(.ARM.Collect$$libinit$$0000001B) for __rt_lib_init_signal_1
    libinit.o(.ARM.Collect$$libinit$$00000000) refers (Special) to libinit2.o(.ARM.Collect$$libinit$$00000023) for __rt_lib_init_stdio_1
    libinit.o(.ARM.Collect$$libinit$$00000000) refers (Special) to libinit2.o(.ARM.Collect$$libinit$$0000000A) for __rt_lib_init_user_alloc_1
    unwinder.o(.emb_text) refers to unwinder.o(.text) for __ARM_Unwind_RaiseException
    unwinder.o(.text) refers to bsearchnoex.o(.text) for bsearch
    unwinder.o(.text) refers to unwind_activity.o(.emb_text) for _Unwind_Activity
    unwinder.o(.text) refers to abort.o(.text) for abort
    unwinder.o(.text) refers to unwinder.o(.emb_text) for __ARM_Unwind_VRS_corerestore
    unwinder.o(.text) refers to h1_alloc.o(.text) for malloc
    unwinder.o(.text) refers to rt_memcpy_w.o(.text) for __aeabi_memcpy4
    unwinder.o(.text) refers to h1_free.o(.text) for free
    unwinder.o(.text) refers (Weak) to unwind_pr0.o(.text) for __aeabi_unwind_cpp_pr0
    flsbuf_fwide.o(.text) refers to flsbuf.o(.text) for __flsbuf
    arm_exceptions_globs.o(.text) refers to abort.o(.text) for abort
    arm_exceptions_globs.o(.text) refers to rt_eh_globals_addr.o(.text) for __rt_eh_globals_addr
    arm_exceptions_globs.o(.text) refers to h1_alloc.o(.text) for malloc
    arm_exceptions_globs.o(.text) refers to arm_exceptions_mem.o(.text) for __ARM_exceptions_buffer_init
    arm_exceptions_globs.o(.ARM.exidx) refers to arm_exceptions_globs.o(.text) for .text
    exception_what.o(.ARM.exidx) refers to exception_what.o(i._ZNKSt9exception4whatEv) for i._ZNKSt9exception4whatEv
    sys_wrch.o(.text) refers (Special) to use_no_semi.o(.text) for __I$use$semihosting
    sys_wrch.o(.text) refers (Special) to indicate_semi.o(.text) for __semihosting_library_function
    rt_eh_globals_addr.o(.text) refers to rt_eh_globals_addr.o(.bss) for __rt_eh_globals_addr_data
    rt_eh_globals_addr_intlibspace.o(.text) refers to libspace.o(.bss) for __libspace_start
    term_alloc.o(.text) refers (Special) to libshutdown2.o(.ARM.Collect$$libshutdown$$0000000E) for __rt_lib_shutdown_heap_2
    term_alloc.o(.text) refers to rt_heap_descriptor.o(.text) for __rt_heap_descriptor
    term_alloc.o(.text) refers to h1_final.o(.text) for __Heap_Finalize
    _printf_char_file_locked.o(.text) refers to _printf_char_common.o(.text) for _printf_char_common
    _printf_char_file_locked.o(.text) refers to fputc.o(i._fputc$unlocked) for _fputc$unlocked
    fwritefast.o(.text) refers to stdio.o(.text) for _writebuf
    fwritefast.o(.text) refers to flsbuf.o(.text) for __flsbuf_byte
    fwritefast.o(.text) refers to rt_memcpy_v6.o(.text) for __aeabi_memcpy
    fwritefast_locked.o(.text) refers to stdio.o(.text) for _writebuf
    fwritefast_locked.o(.text) refers to flsbuf.o(.text) for __flsbuf_byte
    fwritefast_locked.o(.text) refers to rt_memcpy_v6.o(.text) for __aeabi_memcpy
    lc_ctype_c.o(locale$$data) refers (Special) to libinit2.o(.ARM.Collect$$libinit$$00000010) for __rt_lib_init_lc_ctype_2
    lc_ctype_c.o(locale$$code) refers (Special) to libinit2.o(.ARM.Collect$$libinit$$00000010) for __rt_lib_init_lc_ctype_2
    lc_ctype_c.o(locale$$code) refers to strcmpv7m.o(.text) for strcmp
    lc_ctype_c.o(locale$$code) refers to lc_ctype_c.o(locale$$data) for __lcctype_c_name
    defsig_abrt_outer.o(.text) refers to defsig_abrt_inner.o(.text) for __rt_SIGABRT_inner
    defsig_abrt_outer.o(.text) refers to defsig_exit.o(.text) for __sig_exit
    defsig_abrt_formal.o(.text) refers to rt_raise.o(.text) for __rt_raise
    defsig_rtmem_inner.o(.text) refers to defsig_general.o(.text) for __default_signal_display
    defsig.o(CL$$defsig) refers to defsig_abrt_inner.o(.text) for __rt_SIGABRT_inner
    defsig.o(CL$$defsig) refers to defsig_rtred_inner.o(.text) for __rt_SIGRTRED_inner
    defsig.o(CL$$defsig) refers to defsig_rtmem_inner.o(.text) for __rt_SIGRTMEM_inner
    defsig.o(CL$$defsig) refers to defsig_pvfn_inner.o(.text) for __rt_SIGPVFN_inner
    assert_stdio.o(.text) refers to fputs.o(.text) for fputs
    assert_stdio.o(.text) refers to fflush.o(.text) for fflush
    assert_stdio.o(.text) refers to stdio_streams.o(.bss) for __stderr
    arm_exceptions_mem.o(.text) refers to h1_alloc.o(.text) for malloc
    arm_exceptions_mem.o(.ARM.exidx) refers to arm_exceptions_mem.o(.text) for .text
    fputs.o(.text) refers to fputc.o(i.fputc) for fputc
    defsig_abrt_inner.o(.text) refers to defsig_general.o(.text) for __default_signal_display
    defsig_fpe_inner.o(.text) refers to defsig_general.o(.text) for __default_signal_display
    defsig_stak_inner.o(.text) refers to defsig_general.o(.text) for __default_signal_display
    defsig_cppl_inner.o(.text) refers to defsig_general.o(.text) for __default_signal_display
    defsig_segv_inner.o(.text) refers to defsig_general.o(.text) for __default_signal_display
    defsig_other.o(.text) refers to defsig_general.o(.text) for __default_signal_display
    main.o(i._ZN12SDFileSystemD1Ev) refers to fatfilesystem.o(.text) for FATFileSystem::~FATFileSystem__sub_object()
    main.o(i._ZN12SDFileSystemD1Ev) refers to sdfilesystem.o(.constdata__ZTV12SDFileSystem) for vtable for SDFileSystem
    main.o(.ARM.exidx) refers to main.o(i._ZN12SDFileSystemD1Ev) for i._ZN12SDFileSystemD1Ev
    sdfilesystem.o(.constdata__ZTV12SDFileSystem) refers to sdfilesystem.o(.constdata__ZTI12SDFileSystem) for typeinfo for SDFileSystem
    sdfilesystem.o(.constdata__ZTV12SDFileSystem) refers to main.o(i._ZN12SDFileSystemD1Ev) for SDFileSystem::~SDFileSystem()
    sdfilesystem.o(.constdata__ZTV12SDFileSystem) refers to sdfilesystem.o(i._ZN12SDFileSystemD0Ev) for SDFileSystem::~SDFileSystem__deallocating()
    sdfilesystem.o(.constdata__ZTV12SDFileSystem) refers to fatfilesystem.o(.text) for FATFileSystem::open(const char*, int)
    sdfilesystem.o(.constdata__ZTV12SDFileSystem) refers to FileSystemLike.o(i._ZN4mbed14FileSystemLike6renameEPKcS2_) for mbed::FileSystemLike::rename(const char*, const char*)
    sdfilesystem.o(.constdata__ZTV12SDFileSystem) refers to sdfilesystem.o(.text) for SDFileSystem::disk_initialize()
    sdfilesystem.o(i._ZN4mbed10DigitalOutaSEi) refers to sdfilesystem.o(i._ZN4mbed10DigitalOut5writeEi) for mbed::DigitalOut::write(int)
    sdfilesystem.o(.ARM.exidx) refers to sdfilesystem.o(i._ZN4mbed10DigitalOutaSEi) for i._ZN4mbed10DigitalOutaSEi
    sdfilesystem.o(i._ZN12SDFileSystemD0Ev) refers to main.o(i._ZN12SDFileSystemD1Ev) for SDFileSystem::~SDFileSystem()
    sdfilesystem.o(i._ZN12SDFileSystemD0Ev) refers to delete.o(i._ZdlPv) for operator delete (void*)
    sdfilesystem.o(.ARM.exidx) refers to sdfilesystem.o(i._ZN12SDFileSystemD0Ev) for i._ZN12SDFileSystemD0Ev
    sdfilesystem.o(i._ZN4mbed10DigitalOut5writeEi) refers to assert.o(i.mbed_assert_internal) for mbed_assert_internal
    sdfilesystem.o(.ARM.exidx) refers to sdfilesystem.o(i._ZN4mbed10DigitalOut5writeEi) for i._ZN4mbed10DigitalOut5writeEi
    sdfilesystem.o(.constdata__ZTI12SDFileSystem) refers to lib_rtti_impl.o(.constdata__ZTVN10__cxxabiv120__si_class_type_infoE) for vtable for __cxxabiv1::__si_class_type_info
    sdfilesystem.o(.constdata__ZTI12SDFileSystem) refers to sdfilesystem.o(.constdata__ZTS12SDFileSystem) for typeinfo name for SDFileSystem
    sdfilesystem.o(.constdata__ZTI12SDFileSystem) refers to fatfilesystem.o(.constdata__ZTI13FATFileSystem) for typeinfo for FATFileSystem
    fatfilesystem.o(.constdata__ZTV13FATFileSystem) refers to fatfilesystem.o(.constdata__ZTI13FATFileSystem) for typeinfo for FATFileSystem
    fatfilesystem.o(.constdata__ZTV13FATFileSystem) refers to fatfilesystem.o(.text) for FATFileSystem::~FATFileSystem__sub_object()
    fatfilesystem.o(.constdata__ZTV13FATFileSystem) refers to FileSystemLike.o(i._ZN4mbed14FileSystemLike6renameEPKcS2_) for mbed::FileSystemLike::rename(const char*, const char*)
    fatfilesystem.o(.constdata__ZTV13FATFileSystem) refers to fatfilesystem.o(i._ZN13FATFileSystem15disk_initializeEv) for FATFileSystem::disk_initialize()
    fatfilesystem.o(.constdata__ZTV13FATFileSystem) refers to fatfilesystem.o(i._ZN13FATFileSystem11disk_statusEv) for FATFileSystem::disk_status()
    fatfilesystem.o(.constdata__ZTV13FATFileSystem) refers to pure_virt.o(i.__cxa_pure_virtual) for __cxa_pure_virtual
    fatfilesystem.o(.constdata__ZTV13FATFileSystem) refers to fatfilesystem.o(i._ZN13FATFileSystem9disk_syncEv) for FATFileSystem::disk_sync()
    fatfilesystem.o(.ARM.exidx) refers to fatfilesystem.o(i._ZN13FATFileSystem15disk_initializeEv) for i._ZN13FATFileSystem15disk_initializeEv
    fatfilesystem.o(.ARM.exidx) refers to fatfilesystem.o(i._ZN13FATFileSystem11disk_statusEv) for i._ZN13FATFileSystem11disk_statusEv
    fatfilesystem.o(.ARM.exidx) refers to fatfilesystem.o(i._ZN13FATFileSystem9disk_syncEv) for i._ZN13FATFileSystem9disk_syncEv
    fatfilesystem.o(.constdata__ZTI13FATFileSystem) refers to lib_rtti_impl.o(.constdata__ZTVN10__cxxabiv120__si_class_type_infoE) for vtable for __cxxabiv1::__si_class_type_info
    fatfilesystem.o(.constdata__ZTI13FATFileSystem) refers to fatfilesystem.o(.constdata__ZTS13FATFileSystem) for typeinfo name for FATFileSystem
    fatfilesystem.o(.constdata__ZTI13FATFileSystem) refers to FileSystemLike.o(.constdata__ZTIN4mbed14FileSystemLikeE) for typeinfo for mbed::FileSystemLike
    fatfilehandle.o(.constdata__ZTV13FATFileHandle) refers to fatfilehandle.o(.constdata__ZTI13FATFileHandle) for typeinfo for FATFileHandle
    fatfilehandle.o(.constdata__ZTV13FATFileHandle) refers to fatfilehandle.o(.text) for FATFileHandle::write(const void*, unsigned)
    fatfilehandle.o(.constdata__ZTV13FATFileHandle) refers to fatfilehandle.o(i._ZN13FATFileHandleD1Ev) for FATFileHandle::~FATFileHandle()
    fatfilehandle.o(.constdata__ZTV13FATFileHandle) refers to fatfilehandle.o(i._ZN13FATFileHandleD0Ev) for FATFileHandle::~FATFileHandle__deallocating()
    fatfilehandle.o(i._ZN13FATFileHandleD1Ev) refers to retarget.o(i._ZN4mbed10FileHandleD2Ev) for mbed::FileHandle::~FileHandle__sub_object()
    fatfilehandle.o(.ARM.exidx) refers to fatfilehandle.o(i._ZN13FATFileHandleD1Ev) for i._ZN13FATFileHandleD1Ev
    fatfilehandle.o(i._ZN13FATFileHandleD0Ev) refers to fatfilehandle.o(i._ZN13FATFileHandleD1Ev) for FATFileHandle::~FATFileHandle()
    fatfilehandle.o(i._ZN13FATFileHandleD0Ev) refers to delete.o(i._ZdlPv) for operator delete (void*)
    fatfilehandle.o(.ARM.exidx) refers to fatfilehandle.o(i._ZN13FATFileHandleD0Ev) for i._ZN13FATFileHandleD0Ev
    fatfilehandle.o(.constdata__ZTI13FATFileHandle) refers to lib_rtti_impl.o(.constdata__ZTVN10__cxxabiv120__si_class_type_infoE) for vtable for __cxxabiv1::__si_class_type_info
    fatfilehandle.o(.constdata__ZTI13FATFileHandle) refers to fatfilehandle.o(.constdata__ZTS13FATFileHandle) for typeinfo name for FATFileHandle
    fatfilehandle.o(.constdata__ZTI13FATFileHandle) refers to retarget.o(.constdata__ZTIN4mbed10FileHandleE) for typeinfo for mbed::FileHandle
    fatdirhandle.o(.constdata__ZTV12FATDirHandle) refers to fatdirhandle.o(.constdata__ZTI12FATDirHandle) for typeinfo for FATDirHandle
    fatdirhandle.o(.constdata__ZTV12FATDirHandle) refers to fatdirhandle.o(.text) for FATDirHandle::closedir()
    fatdirhandle.o(.constdata__ZTV12FATDirHandle) refers to fatdirhandle.o(i._ZN12FATDirHandleD1Ev) for FATDirHandle::~FATDirHandle()
    fatdirhandle.o(.constdata__ZTV12FATDirHandle) refers to fatdirhandle.o(i._ZN12FATDirHandleD0Ev) for FATDirHandle::~FATDirHandle__deallocating()
    fatdirhandle.o(.ARM.exidx) refers to fatdirhandle.o(i._ZN12FATDirHandleD1Ev) for i._ZN12FATDirHandleD1Ev
    fatdirhandle.o(i._ZN12FATDirHandleD0Ev) refers to fatdirhandle.o(i._ZN12FATDirHandleD1Ev) for FATDirHandle::~FATDirHandle()
    fatdirhandle.o(i._ZN12FATDirHandleD0Ev) refers to delete.o(i._ZdlPv) for operator delete (void*)
    fatdirhandle.o(.ARM.exidx) refers to fatdirhandle.o(i._ZN12FATDirHandleD0Ev) for i._ZN12FATDirHandleD0Ev
    fatdirhandle.o(.constdata__ZTVN4mbed9DirHandleE) refers to FileSystemLike.o(.constdata__ZTIN4mbed9DirHandleE) for typeinfo for mbed::DirHandle
    fatdirhandle.o(.constdata__ZTVN4mbed9DirHandleE) refers to pure_virt.o(i.__cxa_pure_virtual) for __cxa_pure_virtual
    fatdirhandle.o(.constdata__ZTVN4mbed9DirHandleE) refers to fatdirhandle.o(i._ZN4mbed9DirHandle7telldirEv) for mbed::DirHandle::telldir()
    fatdirhandle.o(.constdata__ZTVN4mbed9DirHandleE) refers to fatdirhandle.o(i._ZN4mbed9DirHandle7seekdirEl) for mbed::DirHandle::seekdir(long)
    fatdirhandle.o(.constdata__ZTVN4mbed9DirHandleE) refers to fatdirhandle.o(i._ZN4mbed9DirHandleD2Ev) for mbed::DirHandle::~DirHandle__sub_object()
    fatdirhandle.o(.constdata__ZTVN4mbed9DirHandleE) refers to fatdirhandle.o(i._ZN4mbed9DirHandleD0Ev) for mbed::DirHandle::~DirHandle__deallocating()
    fatdirhandle.o(.constdata__ZTI12FATDirHandle) refers to lib_rtti_impl.o(.constdata__ZTVN10__cxxabiv120__si_class_type_infoE) for vtable for __cxxabiv1::__si_class_type_info
    fatdirhandle.o(.constdata__ZTI12FATDirHandle) refers to fatdirhandle.o(.constdata__ZTS12FATDirHandle) for typeinfo name for FATDirHandle
    fatdirhandle.o(.constdata__ZTI12FATDirHandle) refers to FileSystemLike.o(.constdata__ZTIN4mbed9DirHandleE) for typeinfo for mbed::DirHandle
    fatdirhandle.o(.ARM.exidx) refers to fatdirhandle.o(i._ZN4mbed9DirHandleD2Ev) for i._ZN4mbed9DirHandleD2Ev
    fatdirhandle.o(.ARM.exidx) refers to fatdirhandle.o(i._ZN4mbed9DirHandle7telldirEv) for i._ZN4mbed9DirHandle7telldirEv
    fatdirhandle.o(.ARM.exidx) refers to fatdirhandle.o(i._ZN4mbed9DirHandle7seekdirEl) for i._ZN4mbed9DirHandle7seekdirEl
    fatdirhandle.o(i._ZN4mbed9DirHandleD0Ev) refers to delete.o(i._ZdlPv) for operator delete (void*)
    fatdirhandle.o(.ARM.exidx) refers to fatdirhandle.o(i._ZN4mbed9DirHandleD0Ev) for i._ZN4mbed9DirHandleD0Ev
    retarget.o(.constdata__ZTVN4mbed10FileHandleE) refers to retarget.o(.constdata__ZTIN4mbed10FileHandleE) for typeinfo for mbed::FileHandle
    retarget.o(.constdata__ZTVN4mbed10FileHandleE) refers to pure_virt.o(i.__cxa_pure_virtual) for __cxa_pure_virtual
    retarget.o(.constdata__ZTVN4mbed10FileHandleE) refers to retarget.o(i._ZN4mbed10FileHandle4flenEv) for mbed::FileHandle::flen()
    retarget.o(.constdata__ZTVN4mbed10FileHandleE) refers to retarget.o(i._ZN4mbed10FileHandleD2Ev) for mbed::FileHandle::~FileHandle__sub_object()
    retarget.o(.constdata__ZTVN4mbed10FileHandleE) refers to retarget.o(i._ZN4mbed10FileHandleD0Ev) for mbed::FileHandle::~FileHandle__deallocating()
    retarget.o(.ARM.exidx) refers to retarget.o(i._ZN4mbed10FileHandle4flenEv) for i._ZN4mbed10FileHandle4flenEv
    retarget.o(.constdata__ZTIN4mbed10FileHandleE) refers to lib_rtti_impl.o(.constdata__ZTVN10__cxxabiv117__class_type_infoE) for vtable for __cxxabiv1::__class_type_info
    retarget.o(.constdata__ZTIN4mbed10FileHandleE) refers to retarget.o(.constdata__ZTSN4mbed10FileHandleE) for typeinfo name for mbed::FileHandle
    FileSystemLike.o(.constdata__ZTVN4mbed14FileSystemLikeE) refers to FileSystemLike.o(.constdata__ZTIN4mbed14FileSystemLikeE) for typeinfo for mbed::FileSystemLike
    FileSystemLike.o(.constdata__ZTVN4mbed14FileSystemLikeE) refers to FileSystemLike.o(i._ZN4mbed14FileSystemLikeD2Ev) for mbed::FileSystemLike::~FileSystemLike__sub_object()
    FileSystemLike.o(.constdata__ZTVN4mbed14FileSystemLikeE) refers to FileSystemLike.o(i._ZN4mbed14FileSystemLikeD0Ev) for mbed::FileSystemLike::~FileSystemLike__deallocating()
    FileSystemLike.o(.constdata__ZTVN4mbed14FileSystemLikeE) refers to pure_virt.o(i.__cxa_pure_virtual) for __cxa_pure_virtual
    FileSystemLike.o(.constdata__ZTVN4mbed14FileSystemLikeE) refers to FileSystemLike.o(i._ZN4mbed14FileSystemLike6removeEPKc) for mbed::FileSystemLike::remove(const char*)
    FileSystemLike.o(.constdata__ZTVN4mbed14FileSystemLikeE) refers to FileSystemLike.o(i._ZN4mbed14FileSystemLike6renameEPKcS2_) for mbed::FileSystemLike::rename(const char*, const char*)
    FileSystemLike.o(.constdata__ZTVN4mbed14FileSystemLikeE) refers to FileSystemLike.o(i._ZN4mbed14FileSystemLike7opendirEPKc) for mbed::FileSystemLike::opendir(const char*)
    FileSystemLike.o(.constdata__ZTVN4mbed14FileSystemLikeE) refers to FileSystemLike.o(i._ZN4mbed14FileSystemLike5mkdirEPKci) for mbed::FileSystemLike::mkdir(const char*, int)
    FileSystemLike.o(.ARM.exidx) refers to FileSystemLike.o(i._ZN4mbed14FileSystemLike6removeEPKc) for i._ZN4mbed14FileSystemLike6removeEPKc
    FileSystemLike.o(.ARM.exidx) refers to FileSystemLike.o(i._ZN4mbed14FileSystemLike6renameEPKcS2_) for i._ZN4mbed14FileSystemLike6renameEPKcS2_
    FileSystemLike.o(.ARM.exidx) refers to FileSystemLike.o(i._ZN4mbed14FileSystemLike7opendirEPKc) for i._ZN4mbed14FileSystemLike7opendirEPKc
    FileSystemLike.o(.ARM.exidx) refers to FileSystemLike.o(i._ZN4mbed14FileSystemLike5mkdirEPKci) for i._ZN4mbed14FileSystemLike5mkdirEPKci
    FileSystemLike.o(.constdata__ZTVN4mbed13BaseDirHandleE) refers to FileSystemLike.o(.constdata__ZTIN4mbed13BaseDirHandleE) for typeinfo for mbed::BaseDirHandle
    FileSystemLike.o(.constdata__ZTVN4mbed13BaseDirHandleE) refers to FileSystemLike.o(i._ZN4mbed13BaseDirHandle8closedirEv) for mbed::BaseDirHandle::closedir()
    FileSystemLike.o(.constdata__ZTVN4mbed13BaseDirHandleE) refers to FileSystemLike.o(i._ZN4mbed13BaseDirHandle7readdirEv) for mbed::BaseDirHandle::readdir()
    FileSystemLike.o(.constdata__ZTVN4mbed13BaseDirHandleE) refers to FileSystemLike.o(i._ZN4mbed13BaseDirHandle9rewinddirEv) for mbed::BaseDirHandle::rewinddir()
    FileSystemLike.o(.constdata__ZTVN4mbed13BaseDirHandleE) refers to FileSystemLike.o(i._ZN4mbed13BaseDirHandle7telldirEv) for mbed::BaseDirHandle::telldir()
    FileSystemLike.o(.constdata__ZTVN4mbed13BaseDirHandleE) refers to FileSystemLike.o(i._ZN4mbed13BaseDirHandle7seekdirEl) for mbed::BaseDirHandle::seekdir(long)
    FileSystemLike.o(.constdata__ZTVN4mbed13BaseDirHandleE) refers to FileSystemLike.o(i._ZN4mbed13BaseDirHandleD1Ev) for mbed::BaseDirHandle::~BaseDirHandle()
    FileSystemLike.o(.constdata__ZTVN4mbed13BaseDirHandleE) refers to FileSystemLike.o(i._ZN4mbed13BaseDirHandleD0Ev) for mbed::BaseDirHandle::~BaseDirHandle__deallocating()
    FileSystemLike.o(.constdata__ZTIN4mbed14FileSystemLikeE) refers to lib_rtti_impl.o(.constdata__ZTVN10__cxxabiv120__si_class_type_infoE) for vtable for __cxxabiv1::__si_class_type_info
    FileSystemLike.o(.constdata__ZTIN4mbed14FileSystemLikeE) refers to FileSystemLike.o(.constdata__ZTSN4mbed14FileSystemLikeE) for typeinfo name for mbed::FileSystemLike
    FileSystemLike.o(.constdata__ZTIN4mbed14FileSystemLikeE) refers to FileBase.o(.constdata__ZTIN4mbed8FileBaseE) for typeinfo for mbed::FileBase
    FileSystemLike.o(.constdata__ZTIN4mbed13BaseDirHandleE) refers to lib_rtti_impl.o(.constdata__ZTVN10__cxxabiv120__si_class_type_infoE) for vtable for __cxxabiv1::__si_class_type_info
    FileSystemLike.o(.constdata__ZTIN4mbed13BaseDirHandleE) refers to FileSystemLike.o(.constdata__ZTSN4mbed13BaseDirHandleE) for typeinfo name for mbed::BaseDirHandle
    FileSystemLike.o(.constdata__ZTIN4mbed13BaseDirHandleE) refers to FileSystemLike.o(.constdata__ZTIN4mbed9DirHandleE) for typeinfo for mbed::DirHandle
    FileSystemLike.o(.constdata__ZTIN4mbed9DirHandleE) refers to lib_rtti_impl.o(.constdata__ZTVN10__cxxabiv117__class_type_infoE) for vtable for __cxxabiv1::__class_type_info
    FileSystemLike.o(.constdata__ZTIN4mbed9DirHandleE) refers to FileSystemLike.o(.constdata__ZTSN4mbed9DirHandleE) for typeinfo name for mbed::DirHandle
    FileSystemLike.o(.ARM.exidx) refers to FileSystemLike.o(i._ZN4mbed13BaseDirHandle8closedirEv) for i._ZN4mbed13BaseDirHandle8closedirEv
    FileSystemLike.o(i._ZN4mbed13BaseDirHandle7readdirEv) refers to FileBase.o(i._ZN4mbed8FileBase3getEi) for mbed::FileBase::get(int)
    FileSystemLike.o(i._ZN4mbed13BaseDirHandle7readdirEv) refers to FileBase.o(i._ZN4mbed8FileBase7getNameEv) for mbed::FileBase::getName()
    FileSystemLike.o(i._ZN4mbed13BaseDirHandle7readdirEv) refers to strncpy.o(.text) for strncpy
    FileSystemLike.o(.ARM.exidx) refers to FileSystemLike.o(i._ZN4mbed13BaseDirHandle7readdirEv) for i._ZN4mbed13BaseDirHandle7readdirEv
    FileSystemLike.o(.ARM.exidx) refers to FileSystemLike.o(i._ZN4mbed13BaseDirHandle7telldirEv) for i._ZN4mbed13BaseDirHandle7telldirEv
    FileSystemLike.o(.ARM.exidx) refers to FileSystemLike.o(i._ZN4mbed13BaseDirHandle7seekdirEl) for i._ZN4mbed13BaseDirHandle7seekdirEl
    FileSystemLike.o(.ARM.exidx) refers to FileSystemLike.o(i._ZN4mbed13BaseDirHandle9rewinddirEv) for i._ZN4mbed13BaseDirHandle9rewinddirEv
    FileSystemLike.o(.ARM.exidx) refers to FileSystemLike.o(i._ZN4mbed13BaseDirHandleD1Ev) for i._ZN4mbed13BaseDirHandleD1Ev
    FileSystemLike.o(i._ZN4mbed13BaseDirHandleD0Ev) refers to delete.o(i._ZdlPv) for operator delete (void*)
    FileSystemLike.o(.ARM.exidx) refers to FileSystemLike.o(i._ZN4mbed13BaseDirHandleD0Ev) for i._ZN4mbed13BaseDirHandleD0Ev
    Ticker.o(.constdata__ZTVN4mbed6TickerE) refers to Ticker.o(.constdata__ZTIN4mbed6TickerE) for typeinfo for mbed::Ticker
    Ticker.o(.constdata__ZTVN4mbed6TickerE) refers to Ticker.o(i._ZN4mbed6TickerD1Ev) for mbed::Ticker::~Ticker()
    Ticker.o(.constdata__ZTVN4mbed6TickerE) refers to Ticker.o(i._ZN4mbed6TickerD0Ev) for mbed::Ticker::~Ticker__deallocating()
    Ticker.o(.constdata__ZTVN4mbed6TickerE) refers to Ticker.o(i._ZN4mbed6Ticker7handlerEv) for mbed::Ticker::handler()
    Ticker.o(i._ZN4mbed6TickerD1Ev) refers to TimerEvent.o(i._ZN4mbed10TimerEvent6removeEv) for mbed::TimerEvent::remove()
    Ticker.o(i._ZN4mbed6TickerD1Ev) refers to FunctionPointer.o(i._ZN4mbed15FunctionPointer6attachEPFvvE) for mbed::FunctionPointer::attach(void(*)())
    Ticker.o(i._ZN4mbed6TickerD1Ev) refers to TimerEvent.o(i._ZN4mbed10TimerEventD2Ev) for mbed::TimerEvent::~TimerEvent__sub_object()
    Ticker.o(i._ZN4mbed6TickerD1Ev) refers to Ticker.o(.constdata__ZTVN4mbed6TickerE) for vtable for mbed::Ticker
    Ticker.o(.ARM.exidx) refers to Ticker.o(i._ZN4mbed6TickerD1Ev) for i._ZN4mbed6TickerD1Ev
    Ticker.o(i._ZN4mbed6TickerD0Ev) refers to TimerEvent.o(i._ZN4mbed10TimerEvent6removeEv) for mbed::TimerEvent::remove()
    Ticker.o(i._ZN4mbed6TickerD0Ev) refers to FunctionPointer.o(i._ZN4mbed15FunctionPointer6attachEPFvvE) for mbed::FunctionPointer::attach(void(*)())
    Ticker.o(i._ZN4mbed6TickerD0Ev) refers to TimerEvent.o(i._ZN4mbed10TimerEventD2Ev) for mbed::TimerEvent::~TimerEvent__sub_object()
    Ticker.o(i._ZN4mbed6TickerD0Ev) refers to delete.o(i._ZdlPv) for operator delete (void*)
    Ticker.o(i._ZN4mbed6TickerD0Ev) refers to Ticker.o(.constdata__ZTVN4mbed6TickerE) for vtable for mbed::Ticker
    Ticker.o(.ARM.exidx) refers to Ticker.o(i._ZN4mbed6TickerD0Ev) for i._ZN4mbed6TickerD0Ev
    Ticker.o(.constdata__ZTIN4mbed6TickerE) refers to lib_rtti_impl.o(.constdata__ZTVN10__cxxabiv120__si_class_type_infoE) for vtable for __cxxabiv1::__si_class_type_info
    Ticker.o(.constdata__ZTIN4mbed6TickerE) refers to Ticker.o(.constdata__ZTSN4mbed6TickerE) for typeinfo name for mbed::Ticker
    Ticker.o(.constdata__ZTIN4mbed6TickerE) refers to TimerEvent.o(.constdata__ZTIN4mbed10TimerEventE) for typeinfo for mbed::TimerEvent
    SPI.o(.constdata__ZTVN4mbed3SPIE) refers to SPI.o(.constdata__ZTIN4mbed3SPIE) for typeinfo for mbed::SPI
    SPI.o(.constdata__ZTVN4mbed3SPIE) refers to SPI.o(i._ZN4mbed3SPI5writeEi) for mbed::SPI::write(int)
    SPI.o(.constdata__ZTVN4mbed3SPIE) refers to SPI.o(i._ZN4mbed3SPID1Ev) for mbed::SPI::~SPI()
    SPI.o(.constdata__ZTVN4mbed3SPIE) refers to SPI.o(i._ZN4mbed3SPID0Ev) for mbed::SPI::~SPI__deallocating()
    SPI.o(.ARM.exidx) refers to SPI.o(i._ZN4mbed3SPID1Ev) for i._ZN4mbed3SPID1Ev
    SPI.o(i._ZN4mbed3SPID0Ev) refers to delete.o(i._ZdlPv) for operator delete (void*)
    SPI.o(.ARM.exidx) refers to SPI.o(i._ZN4mbed3SPID0Ev) for i._ZN4mbed3SPID0Ev
    SPI.o(.constdata__ZTIN4mbed3SPIE) refers to lib_rtti_impl.o(.constdata__ZTVN10__cxxabiv117__class_type_infoE) for vtable for __cxxabiv1::__class_type_info
    SPI.o(.constdata__ZTIN4mbed3SPIE) refers to SPI.o(.constdata__ZTSN4mbed3SPIE) for typeinfo name for mbed::SPI
    TimerEvent.o(.constdata__ZTVN4mbed10TimerEventE) refers to TimerEvent.o(.constdata__ZTIN4mbed10TimerEventE) for typeinfo for mbed::TimerEvent
    TimerEvent.o(.constdata__ZTVN4mbed10TimerEventE) refers to TimerEvent.o(i._ZN4mbed10TimerEventD2Ev) for mbed::TimerEvent::~TimerEvent__sub_object()
    TimerEvent.o(.constdata__ZTVN4mbed10TimerEventE) refers to TimerEvent.o(i._ZN4mbed10TimerEventD0Ev) for mbed::TimerEvent::~TimerEvent__deallocating()
    TimerEvent.o(.constdata__ZTVN4mbed10TimerEventE) refers to pure_virt.o(i.__cxa_pure_virtual) for __cxa_pure_virtual
    TimerEvent.o(.constdata__ZTIN4mbed10TimerEventE) refers to lib_rtti_impl.o(.constdata__ZTVN10__cxxabiv117__class_type_infoE) for vtable for __cxxabiv1::__class_type_info
    TimerEvent.o(.constdata__ZTIN4mbed10TimerEventE) refers to TimerEvent.o(.constdata__ZTSN4mbed10TimerEventE) for typeinfo name for mbed::TimerEvent
    FileBase.o(.constdata__ZTVN4mbed8FileBaseE) refers to FileBase.o(.constdata__ZTIN4mbed8FileBaseE) for typeinfo for mbed::FileBase
    FileBase.o(.constdata__ZTVN4mbed8FileBaseE) refers to FileBase.o(i._ZN4mbed8FileBaseD1Ev) for mbed::FileBase::~FileBase()
    FileBase.o(.constdata__ZTVN4mbed8FileBaseE) refers to FileBase.o(i._ZN4mbed8FileBaseD0Ev) for mbed::FileBase::~FileBase__deallocating()
    FileBase.o(.constdata__ZTIN4mbed8FileBaseE) refers to lib_rtti_impl.o(.constdata__ZTVN10__cxxabiv117__class_type_infoE) for vtable for __cxxabiv1::__class_type_info
    FileBase.o(.constdata__ZTIN4mbed8FileBaseE) refers to FileBase.o(.constdata__ZTSN4mbed8FileBaseE) for typeinfo name for mbed::FileBase
    lib_rtti_impl.o(.constdata__ZTVN10__cxxabiv123__fundamental_type_infoE) refers to lib_rtti_impl.o(.constdata__ZTIN10__cxxabiv123__fundamental_type_infoE) for typeinfo for __cxxabiv1::__fundamental_type_info
    lib_rtti_impl.o(.constdata__ZTVN10__cxxabiv123__fundamental_type_infoE) refers to lib_rtti_impl.o(i._ZN10__cxxabiv123__fundamental_type_infoD1Ev) for __cxxabiv1::__fundamental_type_info::~__fundamental_type_info()
    lib_rtti_impl.o(.constdata__ZTVN10__cxxabiv123__fundamental_type_infoE) refers to lib_rtti_impl.o(i._ZN10__cxxabiv123__fundamental_type_infoD0Ev) for __cxxabiv1::__fundamental_type_info::~__fundamental_type_info__deallocating()
    lib_rtti_impl.o(.constdata__ZTVN10__cxxabiv117__array_type_infoE) refers to lib_rtti_impl.o(.constdata__ZTIN10__cxxabiv117__array_type_infoE) for typeinfo for __cxxabiv1::__array_type_info
    lib_rtti_impl.o(.constdata__ZTVN10__cxxabiv117__array_type_infoE) refers to lib_rtti_impl.o(i._ZN10__cxxabiv117__array_type_infoD1Ev) for __cxxabiv1::__array_type_info::~__array_type_info()
    lib_rtti_impl.o(.constdata__ZTVN10__cxxabiv117__array_type_infoE) refers to lib_rtti_impl.o(i._ZN10__cxxabiv117__array_type_infoD0Ev) for __cxxabiv1::__array_type_info::~__array_type_info__deallocating()
    lib_rtti_impl.o(.constdata__ZTVN10__cxxabiv120__function_type_infoE) refers to lib_rtti_impl.o(.constdata__ZTIN10__cxxabiv120__function_type_infoE) for typeinfo for __cxxabiv1::__function_type_info
    lib_rtti_impl.o(.constdata__ZTVN10__cxxabiv120__function_type_infoE) refers to lib_rtti_impl.o(i._ZN10__cxxabiv120__function_type_infoD1Ev) for __cxxabiv1::__function_type_info::~__function_type_info()
    lib_rtti_impl.o(.constdata__ZTVN10__cxxabiv120__function_type_infoE) refers to lib_rtti_impl.o(i._ZN10__cxxabiv120__function_type_infoD0Ev) for __cxxabiv1::__function_type_info::~__function_type_info__deallocating()
    lib_rtti_impl.o(.constdata__ZTVN10__cxxabiv116__enum_type_infoE) refers to lib_rtti_impl.o(.constdata__ZTIN10__cxxabiv116__enum_type_infoE) for typeinfo for __cxxabiv1::__enum_type_info
    lib_rtti_impl.o(.constdata__ZTVN10__cxxabiv116__enum_type_infoE) refers to lib_rtti_impl.o(i._ZN10__cxxabiv116__enum_type_infoD1Ev) for __cxxabiv1::__enum_type_info::~__enum_type_info()
    lib_rtti_impl.o(.constdata__ZTVN10__cxxabiv116__enum_type_infoE) refers to lib_rtti_impl.o(i._ZN10__cxxabiv116__enum_type_infoD0Ev) for __cxxabiv1::__enum_type_info::~__enum_type_info__deallocating()
    lib_rtti_impl.o(.constdata__ZTVN10__cxxabiv117__class_type_infoE) refers to lib_rtti_impl.o(.constdata__ZTIN10__cxxabiv117__class_type_infoE) for typeinfo for __cxxabiv1::__class_type_info
    lib_rtti_impl.o(.constdata__ZTVN10__cxxabiv117__class_type_infoE) refers to lib_rtti_impl.o(i._ZN10__cxxabiv117__class_type_infoD1Ev) for __cxxabiv1::__class_type_info::~__class_type_info()
    lib_rtti_impl.o(.constdata__ZTVN10__cxxabiv117__class_type_infoE) refers to lib_rtti_impl.o(i._ZN10__cxxabiv117__class_type_infoD0Ev) for __cxxabiv1::__class_type_info::~__class_type_info__deallocating()
    lib_rtti_impl.o(.constdata__ZTVN10__cxxabiv120__si_class_type_infoE) refers to lib_rtti_impl.o(.constdata__ZTIN10__cxxabiv120__si_class_type_infoE) for typeinfo for __cxxabiv1::__si_class_type_info
    lib_rtti_impl.o(.constdata__ZTVN10__cxxabiv120__si_class_type_infoE) refers to lib_rtti_impl.o(i._ZN10__cxxabiv120__si_class_type_infoD1Ev) for __cxxabiv1::__si_class_type_info::~__si_class_type_info()
    lib_rtti_impl.o(.constdata__ZTVN10__cxxabiv120__si_class_type_infoE) refers to lib_rtti_impl.o(i._ZN10__cxxabiv120__si_class_type_infoD0Ev) for __cxxabiv1::__si_class_type_info::~__si_class_type_info__deallocating()
    lib_rtti_impl.o(.constdata__ZTVN10__cxxabiv121__vmi_class_type_infoE) refers to lib_rtti_impl.o(.constdata__ZTIN10__cxxabiv121__vmi_class_type_infoE) for typeinfo for __cxxabiv1::__vmi_class_type_info
    lib_rtti_impl.o(.constdata__ZTVN10__cxxabiv121__vmi_class_type_infoE) refers to lib_rtti_impl.o(i._ZN10__cxxabiv121__vmi_class_type_infoD1Ev) for __cxxabiv1::__vmi_class_type_info::~__vmi_class_type_info()
    lib_rtti_impl.o(.constdata__ZTVN10__cxxabiv121__vmi_class_type_infoE) refers to lib_rtti_impl.o(i._ZN10__cxxabiv121__vmi_class_type_infoD0Ev) for __cxxabiv1::__vmi_class_type_info::~__vmi_class_type_info__deallocating()
    lib_rtti_impl.o(.constdata__ZTVN10__cxxabiv117__pbase_type_infoE) refers to lib_rtti_impl.o(.constdata__ZTIN10__cxxabiv117__pbase_type_infoE) for typeinfo for __cxxabiv1::__pbase_type_info
    lib_rtti_impl.o(.constdata__ZTVN10__cxxabiv117__pbase_type_infoE) refers to lib_rtti_impl.o(i._ZN10__cxxabiv117__pbase_type_infoD1Ev) for __cxxabiv1::__pbase_type_info::~__pbase_type_info()
    lib_rtti_impl.o(.constdata__ZTVN10__cxxabiv117__pbase_type_infoE) refers to lib_rtti_impl.o(i._ZN10__cxxabiv117__pbase_type_infoD0Ev) for __cxxabiv1::__pbase_type_info::~__pbase_type_info__deallocating()
    lib_rtti_impl.o(.constdata__ZTVN10__cxxabiv119__pointer_type_infoE) refers to lib_rtti_impl.o(.constdata__ZTIN10__cxxabiv119__pointer_type_infoE) for typeinfo for __cxxabiv1::__pointer_type_info
    lib_rtti_impl.o(.constdata__ZTVN10__cxxabiv119__pointer_type_infoE) refers to lib_rtti_impl.o(i._ZN10__cxxabiv119__pointer_type_infoD1Ev) for __cxxabiv1::__pointer_type_info::~__pointer_type_info()
    lib_rtti_impl.o(.constdata__ZTVN10__cxxabiv119__pointer_type_infoE) refers to lib_rtti_impl.o(i._ZN10__cxxabiv119__pointer_type_infoD0Ev) for __cxxabiv1::__pointer_type_info::~__pointer_type_info__deallocating()
    lib_rtti_impl.o(.constdata__ZTVN10__cxxabiv129__pointer_to_member_type_infoE) refers to lib_rtti_impl.o(.constdata__ZTIN10__cxxabiv129__pointer_to_member_type_infoE) for typeinfo for __cxxabiv1::__pointer_to_member_type_info
    lib_rtti_impl.o(.constdata__ZTVN10__cxxabiv129__pointer_to_member_type_infoE) refers to lib_rtti_impl.o(i._ZN10__cxxabiv129__pointer_to_member_type_infoD1Ev) for __cxxabiv1::__pointer_to_member_type_info::~__pointer_to_member_type_info()
    lib_rtti_impl.o(.constdata__ZTVN10__cxxabiv129__pointer_to_member_type_infoE) refers to lib_rtti_impl.o(i._ZN10__cxxabiv129__pointer_to_member_type_infoD0Ev) for __cxxabiv1::__pointer_to_member_type_info::~__pointer_to_member_type_info__deallocating()
    lib_rtti_impl.o(.constdata__ZTIN10__cxxabiv123__fundamental_type_infoE) refers to lib_rtti_impl.o(.constdata__ZTVN10__cxxabiv120__si_class_type_infoE) for vtable for __cxxabiv1::__si_class_type_info
    lib_rtti_impl.o(.constdata__ZTIN10__cxxabiv123__fundamental_type_infoE) refers to lib_rtti_impl.o(.constdata__ZTSN10__cxxabiv123__fundamental_type_infoE) for typeinfo name for __cxxabiv1::__fundamental_type_info
    lib_rtti_impl.o(.constdata__ZTIN10__cxxabiv123__fundamental_type_infoE) refers to type_info_dtor.o(.constdata__ZTISt9type_info) for typeinfo for std::type_info
    lib_rtti_impl.o(.constdata__ZTIN10__cxxabiv117__array_type_infoE) refers to lib_rtti_impl.o(.constdata__ZTVN10__cxxabiv120__si_class_type_infoE) for vtable for __cxxabiv1::__si_class_type_info
    lib_rtti_impl.o(.constdata__ZTIN10__cxxabiv117__array_type_infoE) refers to lib_rtti_impl.o(.constdata__ZTSN10__cxxabiv117__array_type_infoE) for typeinfo name for __cxxabiv1::__array_type_info
    lib_rtti_impl.o(.constdata__ZTIN10__cxxabiv117__array_type_infoE) refers to type_info_dtor.o(.constdata__ZTISt9type_info) for typeinfo for std::type_info
    lib_rtti_impl.o(.constdata__ZTIN10__cxxabiv120__function_type_infoE) refers to lib_rtti_impl.o(.constdata__ZTVN10__cxxabiv120__si_class_type_infoE) for vtable for __cxxabiv1::__si_class_type_info
    lib_rtti_impl.o(.constdata__ZTIN10__cxxabiv120__function_type_infoE) refers to lib_rtti_impl.o(.constdata__ZTSN10__cxxabiv120__function_type_infoE) for typeinfo name for __cxxabiv1::__function_type_info
    lib_rtti_impl.o(.constdata__ZTIN10__cxxabiv120__function_type_infoE) refers to type_info_dtor.o(.constdata__ZTISt9type_info) for typeinfo for std::type_info
    lib_rtti_impl.o(.constdata__ZTIN10__cxxabiv116__enum_type_infoE) refers to lib_rtti_impl.o(.constdata__ZTVN10__cxxabiv120__si_class_type_infoE) for vtable for __cxxabiv1::__si_class_type_info
    lib_rtti_impl.o(.constdata__ZTIN10__cxxabiv116__enum_type_infoE) refers to lib_rtti_impl.o(.constdata__ZTSN10__cxxabiv116__enum_type_infoE) for typeinfo name for __cxxabiv1::__enum_type_info
    lib_rtti_impl.o(.constdata__ZTIN10__cxxabiv116__enum_type_infoE) refers to type_info_dtor.o(.constdata__ZTISt9type_info) for typeinfo for std::type_info
    lib_rtti_impl.o(.constdata__ZTIN10__cxxabiv117__class_type_infoE) refers to lib_rtti_impl.o(.constdata__ZTVN10__cxxabiv120__si_class_type_infoE) for vtable for __cxxabiv1::__si_class_type_info
    lib_rtti_impl.o(.constdata__ZTIN10__cxxabiv117__class_type_infoE) refers to lib_rtti_impl.o(.constdata__ZTSN10__cxxabiv117__class_type_infoE) for typeinfo name for __cxxabiv1::__class_type_info
    lib_rtti_impl.o(.constdata__ZTIN10__cxxabiv117__class_type_infoE) refers to type_info_dtor.o(.constdata__ZTISt9type_info) for typeinfo for std::type_info
    lib_rtti_impl.o(.constdata__ZTIN10__cxxabiv120__si_class_type_infoE) refers to lib_rtti_impl.o(.constdata__ZTVN10__cxxabiv120__si_class_type_infoE) for vtable for __cxxabiv1::__si_class_type_info
    lib_rtti_impl.o(.constdata__ZTIN10__cxxabiv120__si_class_type_infoE) refers to lib_rtti_impl.o(.constdata__ZTSN10__cxxabiv120__si_class_type_infoE) for typeinfo name for __cxxabiv1::__si_class_type_info
    lib_rtti_impl.o(.constdata__ZTIN10__cxxabiv120__si_class_type_infoE) refers to lib_rtti_impl.o(.constdata__ZTIN10__cxxabiv117__class_type_infoE) for typeinfo for __cxxabiv1::__class_type_info
    lib_rtti_impl.o(.constdata__ZTIN10__cxxabiv121__vmi_class_type_infoE) refers to lib_rtti_impl.o(.constdata__ZTVN10__cxxabiv120__si_class_type_infoE) for vtable for __cxxabiv1::__si_class_type_info
    lib_rtti_impl.o(.constdata__ZTIN10__cxxabiv121__vmi_class_type_infoE) refers to lib_rtti_impl.o(.constdata__ZTSN10__cxxabiv121__vmi_class_type_infoE) for typeinfo name for __cxxabiv1::__vmi_class_type_info
    lib_rtti_impl.o(.constdata__ZTIN10__cxxabiv121__vmi_class_type_infoE) refers to lib_rtti_impl.o(.constdata__ZTIN10__cxxabiv117__class_type_infoE) for typeinfo for __cxxabiv1::__class_type_info
    lib_rtti_impl.o(.constdata__ZTIN10__cxxabiv117__pbase_type_infoE) refers to lib_rtti_impl.o(.constdata__ZTVN10__cxxabiv120__si_class_type_infoE) for vtable for __cxxabiv1::__si_class_type_info
    lib_rtti_impl.o(.constdata__ZTIN10__cxxabiv117__pbase_type_infoE) refers to lib_rtti_impl.o(.constdata__ZTSN10__cxxabiv117__pbase_type_infoE) for typeinfo name for __cxxabiv1::__pbase_type_info
    lib_rtti_impl.o(.constdata__ZTIN10__cxxabiv117__pbase_type_infoE) refers to type_info_dtor.o(.constdata__ZTISt9type_info) for typeinfo for std::type_info
    lib_rtti_impl.o(.constdata__ZTIN10__cxxabiv119__pointer_type_infoE) refers to lib_rtti_impl.o(.constdata__ZTVN10__cxxabiv120__si_class_type_infoE) for vtable for __cxxabiv1::__si_class_type_info
    lib_rtti_impl.o(.constdata__ZTIN10__cxxabiv119__pointer_type_infoE) refers to lib_rtti_impl.o(.constdata__ZTSN10__cxxabiv119__pointer_type_infoE) for typeinfo name for __cxxabiv1::__pointer_type_info
    lib_rtti_impl.o(.constdata__ZTIN10__cxxabiv119__pointer_type_infoE) refers to lib_rtti_impl.o(.constdata__ZTIN10__cxxabiv117__pbase_type_infoE) for typeinfo for __cxxabiv1::__pbase_type_info
    lib_rtti_impl.o(.constdata__ZTIN10__cxxabiv129__pointer_to_member_type_infoE) refers to lib_rtti_impl.o(.constdata__ZTVN10__cxxabiv120__si_class_type_infoE) for vtable for __cxxabiv1::__si_class_type_info
    lib_rtti_impl.o(.constdata__ZTIN10__cxxabiv129__pointer_to_member_type_infoE) refers to lib_rtti_impl.o(.constdata__ZTSN10__cxxabiv129__pointer_to_member_type_infoE) for typeinfo name for __cxxabiv1::__pointer_to_member_type_info
    lib_rtti_impl.o(.constdata__ZTIN10__cxxabiv129__pointer_to_member_type_infoE) refers to lib_rtti_impl.o(.constdata__ZTIN10__cxxabiv117__pbase_type_infoE) for typeinfo for __cxxabiv1::__pbase_type_info
    bad_alloc_dtor.o(.constdata__ZTVSt9bad_alloc) refers to bad_alloc_dtor.o(.constdata__ZTISt9bad_alloc) for typeinfo for std::bad_alloc
    bad_alloc_dtor.o(.constdata__ZTVSt9bad_alloc) refers to bad_alloc_dtor.o(i._ZNSt9bad_allocD1Ev) for std::bad_alloc::~bad_alloc()
    bad_alloc_dtor.o(.constdata__ZTVSt9bad_alloc) refers to bad_alloc_dtor.o(i._ZNSt9bad_allocD0Ev) for std::bad_alloc::~bad_alloc__deallocating()
    bad_alloc_dtor.o(.constdata__ZTVSt9bad_alloc) refers to bad_alloc_what.o(i._ZNKSt9bad_alloc4whatEv) for std::bad_alloc::what() const
    bad_alloc_dtor.o(.constdata__ZTISt9bad_alloc) refers to lib_rtti_impl.o(.constdata__ZTVN10__cxxabiv120__si_class_type_infoE) for vtable for __cxxabiv1::__si_class_type_info
    bad_alloc_dtor.o(.constdata__ZTISt9bad_alloc) refers to bad_alloc_dtor.o(.constdata__ZTSSt9bad_alloc) for typeinfo name for std::bad_alloc
    bad_alloc_dtor.o(.constdata__ZTISt9bad_alloc) refers to exception_dtor.o(.constdata__ZTISt9exception) for typeinfo for std::exception
    type_info_dtor.o(.constdata__ZTVSt9type_info) refers to type_info_dtor.o(.constdata__ZTISt9type_info) for typeinfo for std::type_info
    type_info_dtor.o(.constdata__ZTVSt9type_info) refers to type_info_dtor.o(i._ZNSt9type_infoD1Ev) for std::type_info::~type_info()
    type_info_dtor.o(.constdata__ZTVSt9type_info) refers to type_info_dtor.o(i._ZNSt9type_infoD0Ev) for std::type_info::~type_info__deallocating()
    type_info_dtor.o(.constdata__ZTISt9type_info) refers to lib_rtti_impl.o(.constdata__ZTVN10__cxxabiv117__class_type_infoE) for vtable for __cxxabiv1::__class_type_info
    type_info_dtor.o(.constdata__ZTISt9type_info) refers to type_info_dtor.o(.constdata__ZTSSt9type_info) for typeinfo name for std::type_info
    exception_dtor.o(.constdata__ZTVSt9exception) refers to exception_dtor.o(.constdata__ZTISt9exception) for typeinfo for std::exception
    exception_dtor.o(.constdata__ZTVSt9exception) refers to exception_dtor.o(i._ZNSt9exceptionD1Ev) for std::exception::~exception()
    exception_dtor.o(.constdata__ZTVSt9exception) refers to exception_dtor.o(i._ZNSt9exceptionD0Ev) for std::exception::~exception__deallocating()
    exception_dtor.o(.constdata__ZTVSt9exception) refers to exception_what.o(i._ZNKSt9exception4whatEv) for std::exception::what() const
    exception_dtor.o(.constdata__ZTISt9exception) refers to lib_rtti_impl.o(.constdata__ZTVN10__cxxabiv117__class_type_infoE) for vtable for __cxxabiv1::__class_type_info
    exception_dtor.o(.constdata__ZTISt9exception) refers to exception_dtor.o(.constdata__ZTSSt9exception) for typeinfo name for std::exception


==============================================================================

Removing Unused input sections from the image.

    Removing main.o(.rev16_text), (4 bytes).
    Removing main.o(.revsh_text), (4 bytes).
    Removing main.o(.ARM.exidx), (8 bytes).
    Removing sdfilesystem.o(.rev16_text), (4 bytes).
    Removing sdfilesystem.o(.revsh_text), (4 bytes).
    Removing sdfilesystem.o(.ARM.exidx), (8 bytes).
    Removing fatfilesystem.o(.rev16_text), (4 bytes).
    Removing fatfilesystem.o(.revsh_text), (4 bytes).
    Removing fatfilesystem.o(.ARM.exidx), (8 bytes).
    Removing fatfilehandle.o(.rev16_text), (4 bytes).
    Removing fatfilehandle.o(.revsh_text), (4 bytes).
    Removing fatfilehandle.o(.ARM.exidx), (8 bytes).
    Removing fatdirhandle.o(.ARM.exidx), (8 bytes).
    Removing diskio.o(.rev16_text), (4 bytes).
    Removing diskio.o(.revsh_text), (4 bytes).
    Removing diskio.o(.ARM.exidx), (8 bytes).
    Removing ccsbcs.o(.ARM.exidx), (8 bytes).
    Removing ff.o(.ARM.exidx), (8 bytes).
    Removing sys.o(.ARM.exidx), (8 bytes).
    Removing cmsis_nvic.o(.rev16_text), (4 bytes).
    Removing cmsis_nvic.o(.revsh_text), (4 bytes).
    Removing cmsis_nvic.o(i.NVIC_GetVector), (16 bytes).
    Removing sys_helper.o(.ARM.exidx), (8 bytes).
    Removing system_LPC407x_8x_177x_8x.o(.rev16_text), (4 bytes).
    Removing system_LPC407x_8x_177x_8x.o(.revsh_text), (4 bytes).
    Removing system_LPC407x_8x_177x_8x.o(i.fpu_init), (68 bytes).
    Removing board.o(.rev16_text), (4 bytes).
    Removing board.o(.revsh_text), (4 bytes).
    Removing retarget.o(.rev16_text), (4 bytes).
    Removing retarget.o(.revsh_text), (4 bytes).
    Removing retarget.o(i._ZN4mbed10FileHandleD0Ev), (48 bytes).
    Removing retarget.o(i._sys_command_string), (4 bytes).
    Removing retarget.o(i._sys_ensure), (40 bytes).
    Removing retarget.o(i._sys_read), (84 bytes).
    Removing retarget.o(i.closedir), (6 bytes).
    Removing retarget.o(i.opendir), (68 bytes).
    Removing retarget.o(i.readdir), (6 bytes).
    Removing retarget.o(i.remove), (52 bytes).
    Removing retarget.o(i.rename), (80 bytes).
    Removing retarget.o(i.rewinddir), (6 bytes).
    Removing retarget.o(i.seekdir), (6 bytes).
    Removing retarget.o(i.telldir), (6 bytes).
    Removing retarget.o(i.tmpfile), (4 bytes).
    Removing retarget.o(i.tmpnam), (4 bytes).
    Removing retarget.o(.ARM.exidx), (8 bytes).
    Removing retarget.o(.ARM.exidx), (8 bytes).
    Removing retarget.o(.ARM.exidx), (8 bytes).
    Removing retarget.o(.ARM.exidx), (8 bytes).
    Removing retarget.o(.ARM.exidx), (8 bytes).
    Removing retarget.o(.ARM.exidx), (8 bytes).
    Removing retarget.o(.ARM.exidx), (8 bytes).
    Removing retarget.o(.ARM.exidx), (8 bytes).
    Removing retarget.o(.ARM.exidx), (8 bytes).
    Removing retarget.o(.ARM.exidx), (8 bytes).
    Removing retarget.o(.ARM.exidx), (8 bytes).
    Removing retarget.o(.ARM.exidx), (8 bytes).
    Removing retarget.o(.ARM.exidx), (8 bytes).
    Removing retarget.o(.ARM.exidx), (8 bytes).
    Removing retarget.o(.ARM.exidx), (8 bytes).
    Removing retarget.o(.ARM.exidx), (8 bytes).
    Removing retarget.o(.ARM.exidx), (8 bytes).
    Removing retarget.o(.ARM.exidx), (8 bytes).
    Removing retarget.o(.ARM.exidx), (8 bytes).
    Removing retarget.o(.ARM.exidx), (8 bytes).
    Removing retarget.o(.ARM.exidx), (8 bytes).
    Removing retarget.o(.ARM.exidx), (8 bytes).
    Removing retarget.o(.ARM.exidx), (8 bytes).
    Removing retarget.o(.ARM.exidx), (8 bytes).
    Removing retarget.o(.ARM.exidx), (8 bytes).
    Removing serial_api.o(.rev16_text), (4 bytes).
    Removing serial_api.o(.revsh_text), (4 bytes).
    Removing serial_api.o(i.serial_break_clear), (12 bytes).
    Removing serial_api.o(i.serial_break_set), (12 bytes).
    Removing serial_api.o(i.serial_clear), (8 bytes).
    Removing serial_api.o(i.serial_free), (16 bytes).
    Removing serial_api.o(i.serial_getc), (14 bytes).
    Removing serial_api.o(i.serial_irq_handler), (24 bytes).
    Removing serial_api.o(i.serial_irq_set), (204 bytes).
    Removing serial_api.o(i.serial_pinout_tx), (12 bytes).
    Removing serial_api.o(i.serial_readable), (10 bytes).
    Removing serial_api.o(i.serial_writable), (10 bytes).
    Removing serial_api.o(i.uart0_irq), (52 bytes).
    Removing serial_api.o(i.uart1_irq), (52 bytes).
    Removing serial_api.o(i.uart2_irq), (52 bytes).
    Removing serial_api.o(i.uart3_irq), (52 bytes).
    Removing serial_api.o(i.uart4_irq), (52 bytes).
    Removing serial_api.o(.bss), (20 bytes).
    Removing FunctionPointer.o(.ARM.exidx), (8 bytes).
    Removing FunctionPointer.o(.ARM.exidx), (8 bytes).
    Removing FunctionPointer.o(.ARM.exidx), (8 bytes).
    Removing FileSystemLike.o(.rev16_text), (4 bytes).
    Removing FileSystemLike.o(.revsh_text), (4 bytes).
    Removing FileSystemLike.o(i._ZN4mbed14FileSystemLike7opendirEv), (40 bytes).
    Removing FileSystemLike.o(i._ZN4mbed14FileSystemLikeD0Ev), (14 bytes).
    Removing FileSystemLike.o(.ARM.exidx), (8 bytes).
    Removing FileSystemLike.o(.ARM.exidx), (8 bytes).
    Removing FileSystemLike.o(.ARM.exidx), (8 bytes).
    Removing FileSystemLike.o(.ARM.exidx), (8 bytes).
    Removing FilePath.o(.rev16_text), (4 bytes).
    Removing FilePath.o(.revsh_text), (4 bytes).
    Removing FilePath.o(i._ZN4mbed8FilePath12isFileSystemEv), (22 bytes).
    Removing FilePath.o(.ARM.exidx), (8 bytes).
    Removing FilePath.o(.ARM.exidx), (8 bytes).
    Removing FilePath.o(.ARM.exidx), (8 bytes).
    Removing FilePath.o(.ARM.exidx), (8 bytes).
    Removing FilePath.o(.ARM.exidx), (8 bytes).
    Removing FilePath.o(.ARM.exidx), (8 bytes).
    Removing FilePath.o(.ARM.exidx), (8 bytes).
    Removing Ticker.o(.ARM.exidx), (8 bytes).
    Removing Ticker.o(.ARM.exidx), (8 bytes).
    Removing Ticker.o(.ARM.exidx), (8 bytes).
    Removing SPI.o(.rev16_text), (4 bytes).
    Removing SPI.o(.revsh_text), (4 bytes).
    Removing SPI.o(i._ZN4mbed3SPI6aquireEv), (44 bytes).
    Removing SPI.o(i._ZN4mbed3SPI6formatEii), (36 bytes).
    Removing SPI.o(.ARM.exidx), (8 bytes).
    Removing SPI.o(.ARM.exidx), (8 bytes).
    Removing SPI.o(.ARM.exidx), (8 bytes).
    Removing SPI.o(.ARM.exidx), (8 bytes).
    Removing SPI.o(.ARM.exidx), (8 bytes).
    Removing assert.o(.rev16_text), (4 bytes).
    Removing assert.o(.revsh_text), (4 bytes).
    Removing TimerEvent.o(.rev16_text), (4 bytes).
    Removing TimerEvent.o(.revsh_text), (4 bytes).
    Removing TimerEvent.o(i._ZN4mbed10TimerEventD0Ev), (32 bytes).
    Removing TimerEvent.o(.ARM.exidx), (8 bytes).
    Removing TimerEvent.o(.ARM.exidx), (8 bytes).
    Removing TimerEvent.o(.ARM.exidx), (8 bytes).
    Removing TimerEvent.o(.ARM.exidx), (8 bytes).
    Removing TimerEvent.o(.ARM.exidx), (8 bytes).
    Removing TimerEvent.o(.ARM.exidx), (8 bytes).
    Removing error.o(.rev16_text), (4 bytes).
    Removing error.o(.revsh_text), (4 bytes).
    Removing gpio.o(.rev16_text), (4 bytes).
    Removing gpio.o(.revsh_text), (4 bytes).
    Removing gpio.o(i.gpio_init_in), (38 bytes).
    Removing gpio.o(i.gpio_init_in_ex), (38 bytes).
    Removing gpio.o(i.gpio_init_inout), (148 bytes).
    Removing gpio.o(i.gpio_init_out_ex), (80 bytes).
    Removing wait_api.o(i.wait), (40 bytes).
    Removing rtc_time.o(.rev16_text), (4 bytes).
    Removing rtc_time.o(.revsh_text), (4 bytes).
    Removing rtc_time.o(i.clock), (16 bytes).
    Removing rtc_time.o(i.set_time), (18 bytes).
    Removing gpio_api.o(.rev16_text), (4 bytes).
    Removing gpio_api.o(.revsh_text), (4 bytes).
    Removing gpio_api.o(i.gpio_set), (44 bytes).
    Removing pinmap.o(.rev16_text), (4 bytes).
    Removing pinmap.o(.revsh_text), (4 bytes).
    Removing rtc_api.o(.rev16_text), (4 bytes).
    Removing rtc_api.o(.revsh_text), (4 bytes).
    Removing rtc_api.o(i.rtc_free), (2 bytes).
    Removing us_ticker.o(.rev16_text), (4 bytes).
    Removing us_ticker.o(.revsh_text), (4 bytes).
    Removing spi_api.o(.rev16_text), (4 bytes).
    Removing spi_api.o(.revsh_text), (4 bytes).
    Removing spi_api.o(i.spi_busy), (10 bytes).
    Removing spi_api.o(i.spi_free), (2 bytes).
    Removing spi_api.o(i.spi_slave_read), (6 bytes).
    Removing spi_api.o(i.spi_slave_receive), (26 bytes).
    Removing spi_api.o(i.spi_slave_write), (14 bytes).
    Removing FileBase.o(.rev16_text), (4 bytes).
    Removing FileBase.o(.revsh_text), (4 bytes).
    Removing FileBase.o(i._ZN4mbed8FileBase3getEi), (32 bytes).
    Removing FileBase.o(i._ZN4mbed8FileBase7getNameEv), (4 bytes).
    Removing FileBase.o(i._ZN4mbed8FileBaseD0Ev), (52 bytes).
    Removing FileBase.o(.ARM.exidx), (8 bytes).
    Removing FileBase.o(.ARM.exidx), (8 bytes).
    Removing FileBase.o(.ARM.exidx), (8 bytes).
    Removing FileBase.o(.ARM.exidx), (8 bytes).
    Removing FileBase.o(.ARM.exidx), (8 bytes).
    Removing FileBase.o(.ARM.exidx), (8 bytes).
    Removing FileBase.o(.ARM.exidx), (8 bytes).
    Removing exit.o(.rev16_text), (4 bytes).
    Removing exit.o(.revsh_text), (4 bytes).
    Removing pinmap_common.o(.rev16_text), (4 bytes).
    Removing pinmap_common.o(.revsh_text), (4 bytes).
    Removing pinmap_common.o(i.pinmap_find_peripheral), (34 bytes).
    Removing us_ticker_api.o(.rev16_text), (4 bytes).
    Removing us_ticker_api.o(.revsh_text), (4 bytes).
    Removing main.o(.ARM.exidx), (8 bytes).
    Removing sdfilesystem.o(.ARM.exidx), (8 bytes).
    Removing sdfilesystem.o(i._ZN12SDFileSystemD0Ev), (18 bytes).
    Removing sdfilesystem.o(.ARM.exidx), (8 bytes).
    Removing sdfilesystem.o(.ARM.exidx), (8 bytes).
    Removing sdfilesystem.o(.constdata__ZTI12SDFileSystem), (12 bytes).
    Removing sdfilesystem.o(.constdata__ZTS12SDFileSystem), (15 bytes).
    Removing fatfilesystem.o(.ARM.exidx), (8 bytes).
    Removing fatfilesystem.o(.ARM.exidx), (8 bytes).
    Removing fatfilesystem.o(.ARM.exidx), (8 bytes).
    Removing fatfilesystem.o(.constdata__ZTI13FATFileSystem), (12 bytes).
    Removing fatfilesystem.o(.constdata__ZTS13FATFileSystem), (16 bytes).
    Removing fatfilehandle.o(.ARM.exidx), (8 bytes).
    Removing fatfilehandle.o(.ARM.exidx), (8 bytes).
    Removing fatfilehandle.o(.constdata__ZTI13FATFileHandle), (12 bytes).
    Removing fatfilehandle.o(.constdata__ZTS13FATFileHandle), (16 bytes).
    Removing fatdirhandle.o(.ARM.exidx), (8 bytes).
    Removing fatdirhandle.o(.ARM.exidx), (8 bytes).
    Removing fatdirhandle.o(.constdata__ZTI12FATDirHandle), (12 bytes).
    Removing fatdirhandle.o(.constdata__ZTS12FATDirHandle), (15 bytes).
    Removing fatdirhandle.o(i._ZN4mbed9DirHandleD2Ev), (2 bytes).
    Removing fatdirhandle.o(.ARM.exidx), (8 bytes).
    Removing fatdirhandle.o(i._ZN4mbed9DirHandle7telldirEv), (8 bytes).
    Removing fatdirhandle.o(.ARM.exidx), (8 bytes).
    Removing fatdirhandle.o(i._ZN4mbed9DirHandle7seekdirEl), (2 bytes).
    Removing fatdirhandle.o(.ARM.exidx), (8 bytes).
    Removing fatdirhandle.o(i._ZN4mbed9DirHandleD0Ev), (16 bytes).
    Removing fatdirhandle.o(.ARM.exidx), (8 bytes).
    Removing retarget.o(.ARM.exidx), (8 bytes).
    Removing retarget.o(.constdata__ZTIN4mbed10FileHandleE), (8 bytes).
    Removing retarget.o(.constdata__ZTSN4mbed10FileHandleE), (20 bytes).
    Removing FileSystemLike.o(i._ZN4mbed14FileSystemLike6removeEPKc), (6 bytes).
    Removing FileSystemLike.o(.ARM.exidx), (8 bytes).
    Removing FileSystemLike.o(i._ZN4mbed14FileSystemLike6renameEPKcS2_), (6 bytes).
    Removing FileSystemLike.o(.ARM.exidx), (8 bytes).
    Removing FileSystemLike.o(i._ZN4mbed14FileSystemLike7opendirEPKc), (4 bytes).
    Removing FileSystemLike.o(.ARM.exidx), (8 bytes).
    Removing FileSystemLike.o(.ARM.exidx), (8 bytes).
    Removing FileSystemLike.o(.constdata__ZTVN4mbed13BaseDirHandleE), (36 bytes).
    Removing FileSystemLike.o(.constdata__ZTIN4mbed14FileSystemLikeE), (12 bytes).
    Removing FileSystemLike.o(.constdata__ZTIN4mbed13BaseDirHandleE), (12 bytes).
    Removing FileSystemLike.o(.constdata__ZTSN4mbed14FileSystemLikeE), (24 bytes).
    Removing FileSystemLike.o(.constdata__ZTIN4mbed9DirHandleE), (8 bytes).
    Removing FileSystemLike.o(.constdata__ZTSN4mbed13BaseDirHandleE), (23 bytes).
    Removing FileSystemLike.o(.constdata__ZTSN4mbed9DirHandleE), (18 bytes).
    Removing FileSystemLike.o(i._ZN4mbed13BaseDirHandle8closedirEv), (12 bytes).
    Removing FileSystemLike.o(.ARM.exidx), (8 bytes).
    Removing FileSystemLike.o(i._ZN4mbed13BaseDirHandle7readdirEv), (44 bytes).
    Removing FileSystemLike.o(.ARM.exidx), (8 bytes).
    Removing FileSystemLike.o(i._ZN4mbed13BaseDirHandle7telldirEv), (4 bytes).
    Removing FileSystemLike.o(.ARM.exidx), (8 bytes).
    Removing FileSystemLike.o(i._ZN4mbed13BaseDirHandle7seekdirEl), (4 bytes).
    Removing FileSystemLike.o(.ARM.exidx), (8 bytes).
    Removing FileSystemLike.o(i._ZN4mbed13BaseDirHandle9rewinddirEv), (6 bytes).
    Removing FileSystemLike.o(.ARM.exidx), (8 bytes).
    Removing FileSystemLike.o(i._ZN4mbed13BaseDirHandleD1Ev), (2 bytes).
    Removing FileSystemLike.o(.ARM.exidx), (8 bytes).
    Removing FileSystemLike.o(i._ZN4mbed13BaseDirHandleD0Ev), (4 bytes).
    Removing FileSystemLike.o(.ARM.exidx), (8 bytes).
    Removing Ticker.o(.ARM.exidx), (8 bytes).
    Removing Ticker.o(i._ZN4mbed6TickerD0Ev), (44 bytes).
    Removing Ticker.o(.ARM.exidx), (8 bytes).
    Removing Ticker.o(.constdata__ZTIN4mbed6TickerE), (12 bytes).
    Removing Ticker.o(.constdata__ZTSN4mbed6TickerE), (15 bytes).
    Removing SPI.o(i._ZN4mbed3SPID1Ev), (2 bytes).
    Removing SPI.o(.ARM.exidx), (8 bytes).
    Removing SPI.o(i._ZN4mbed3SPID0Ev), (4 bytes).
    Removing SPI.o(.ARM.exidx), (8 bytes).
    Removing SPI.o(.constdata__ZTIN4mbed3SPIE), (8 bytes).
    Removing SPI.o(.constdata__ZTSN4mbed3SPIE), (12 bytes).
    Removing TimerEvent.o(.constdata__ZTIN4mbed10TimerEventE), (8 bytes).
    Removing TimerEvent.o(.constdata__ZTSN4mbed10TimerEventE), (20 bytes).
    Removing FileBase.o(.constdata__ZTIN4mbed8FileBaseE), (8 bytes).
    Removing FileBase.o(.constdata__ZTSN4mbed8FileBaseE), (17 bytes).

254 unused section(s) (total 3475 bytes) removed from the image.

==============================================================================

Image Symbol Table

    Local Symbols

    Symbol Name                              Value     Ov Type        Size  Object(Section)

    RESET                                    0x00000000   Section      228  startup_LPC407x_8x_177x_8x.o(RESET)
    ../../../edgfe/lib_src/arm_exceptions.c  0x00000000   Number         0  arm_exceptions_globs.o ABSOLUTE
    ../../../edgfe/lib_src/arm_exceptions.c  0x00000000   Number         0  arm_exceptions_terminate.o ABSOLUTE
    ../../../edgfe/lib_src/arm_exceptions.c  0x00000000   Number         0  arm_exceptions_mem.o ABSOLUTE
    ../../../edgfe/lib_src/arm_noexceptions.c 0x00000000   Number         0  arm_newhandler_noexceptions.o ABSOLUTE
    ../../../edgfe/lib_src/arm_noexceptions.c 0x00000000   Number         0  arm_callunex_noexceptions.o ABSOLUTE
    ../../../edgfe/lib_src/bad_alloc.c       0x00000000   Number         0  bad_alloc_what.o ABSOLUTE
    ../../../edgfe/lib_src/bad_alloc.c       0x00000000   Number         0  bad_alloc_dtor.o ABSOLUTE
    ../../../edgfe/lib_src/delete.c          0x00000000   Number         0  delete.o ABSOLUTE
    ../../../edgfe/lib_src/dtor_list.c       0x00000000   Number         0  cxa_atexit.o ABSOLUTE
    ../../../edgfe/lib_src/dtor_list.c       0x00000000   Number         0  cxa_finalize.o ABSOLUTE
    ../../../edgfe/lib_src/dtor_list.c       0x00000000   Number         0  aeabi_atexit.o ABSOLUTE
    ../../../edgfe/lib_src/exception.c       0x00000000   Number         0  exception_dtor.o ABSOLUTE
    ../../../edgfe/lib_src/exception.c       0x00000000   Number         0  exception_what.o ABSOLUTE
    ../../../edgfe/lib_src/new.c             0x00000000   Number         0  new.o ABSOLUTE
    ../../../edgfe/lib_src/pure_virt.c       0x00000000   Number         0  pure_virt.o ABSOLUTE
    ../../../edgfe/lib_src/typeinfo.c        0x00000000   Number         0  lib_rtti_impl.o ABSOLUTE
    ../../../edgfe/lib_src/typeinfo.c        0x00000000   Number         0  type_info_dtor.o ABSOLUTE
    ../clib/angel/boardlib.s                 0x00000000   Number         0  boardinit2.o ABSOLUTE
    ../clib/angel/boardlib.s                 0x00000000   Number         0  boardinit3.o ABSOLUTE
    ../clib/angel/boardlib.s                 0x00000000   Number         0  boardinit1.o ABSOLUTE
    ../clib/angel/handlers.s                 0x00000000   Number         0  __scatter_zi.o ABSOLUTE
    ../clib/angel/handlers.s                 0x00000000   Number         0  __scatter_copy.o ABSOLUTE
    ../clib/angel/kernel.s                   0x00000000   Number         0  rtentry2.o ABSOLUTE
    ../clib/angel/kernel.s                   0x00000000   Number         0  rtentry4.o ABSOLUTE
    ../clib/angel/kernel.s                   0x00000000   Number         0  rtentry.o ABSOLUTE
    ../clib/angel/rt.s                       0x00000000   Number         0  rt_new_handler_addr_intlibspace.o ABSOLUTE
    ../clib/angel/rt.s                       0x00000000   Number         0  rt_ddtor_pointer_addr.o ABSOLUTE
    ../clib/angel/rt.s                       0x00000000   Number         0  rt_raise.o ABSOLUTE
    ../clib/angel/rt.s                       0x00000000   Number         0  rt_heap_descriptor_intlibspace.o ABSOLUTE
    ../clib/angel/rt.s                       0x00000000   Number         0  rt_locale.o ABSOLUTE
    ../clib/angel/rt.s                       0x00000000   Number         0  rt_locale_intlibspace.o ABSOLUTE
    ../clib/angel/rt.s                       0x00000000   Number         0  rt_heap_descriptor.o ABSOLUTE
    ../clib/angel/rt.s                       0x00000000   Number         0  rt_ctype_table.o ABSOLUTE
    ../clib/angel/rt.s                       0x00000000   Number         0  rt_errno_addr.o ABSOLUTE
    ../clib/angel/rt.s                       0x00000000   Number         0  rt_errno_addr_intlibspace.o ABSOLUTE
    ../clib/angel/rt.s                       0x00000000   Number         0  rt_eh_globals_addr.o ABSOLUTE
    ../clib/angel/rt.s                       0x00000000   Number         0  rt_eh_globals_addr_intlibspace.o ABSOLUTE
    ../clib/angel/rt.s                       0x00000000   Number         0  rt_ddtor_pointer_addr_intlibspace.o ABSOLUTE
    ../clib/angel/rt.s                       0x00000000   Number         0  rt_new_handler_addr.o ABSOLUTE
    ../clib/angel/scatter.s                  0x00000000   Number         0  __scatter.o ABSOLUTE
    ../clib/angel/startup.s                  0x00000000   Number         0  __main.o ABSOLUTE
    ../clib/angel/sys.s                      0x00000000   Number         0  indicate_semi.o ABSOLUTE
    ../clib/angel/sys.s                      0x00000000   Number         0  use_no_semi.o ABSOLUTE
    ../clib/angel/sys.s                      0x00000000   Number         0  mutex_dummy.o ABSOLUTE
    ../clib/angel/sys.s                      0x00000000   Number         0  libspace.o ABSOLUTE
    ../clib/angel/sysapp.c                   0x00000000   Number         0  sys_wrch.o ABSOLUTE
    ../clib/angel/sysapp.c                   0x00000000   Number         0  sys_exit.o ABSOLUTE
    ../clib/arm_runtime.c                    0x00000000   Number         0  init_aeabi.o ABSOLUTE
    ../clib/arm_runtime.c                    0x00000000   Number         0  init_aeabi.o ABSOLUTE
    ../clib/armsys.c                         0x00000000   Number         0  _get_argv.o ABSOLUTE
    ../clib/armsys.c                         0x00000000   Number         0  argv_veneer.o ABSOLUTE
    ../clib/armsys.c                         0x00000000   Number         0  _get_argv_nomalloc.o ABSOLUTE
    ../clib/armsys.c                         0x00000000   Number         0  argv_veneer.o ABSOLUTE
    ../clib/armsys.c                         0x00000000   Number         0  no_argv.o ABSOLUTE
    ../clib/assert.c                         0x00000000   Number         0  assert_stdio.o ABSOLUTE
    ../clib/bigflt.c                         0x00000000   Number         0  bigflt0.o ABSOLUTE
    ../clib/btod.s                           0x00000000   Number         0  btod.o ABSOLUTE
    ../clib/ctype.c                          0x00000000   Number         0  isspace.o ABSOLUTE
    ../clib/heap1.c                          0x00000000   Number         0  h1_alloc_mt.o ABSOLUTE
    ../clib/heap1.c                          0x00000000   Number         0  h1_free.o ABSOLUTE
    ../clib/heap1.c                          0x00000000   Number         0  h1_alloc.o ABSOLUTE
    ../clib/heap1.c                          0x00000000   Number         0  h1_final_mt.o ABSOLUTE
    ../clib/heap1.c                          0x00000000   Number         0  h1_final.o ABSOLUTE
    ../clib/heap1.c                          0x00000000   Number         0  h1_extend_mt.o ABSOLUTE
    ../clib/heap1.c                          0x00000000   Number         0  h1_extend.o ABSOLUTE
    ../clib/heap1.c                          0x00000000   Number         0  h1_init_mt.o ABSOLUTE
    ../clib/heap1.c                          0x00000000   Number         0  h1_init.o ABSOLUTE
    ../clib/heap1.c                          0x00000000   Number         0  h1_free_mt.o ABSOLUTE
    ../clib/heap2.c                          0x00000000   Number         0  heap2mt.o ABSOLUTE
    ../clib/heap2.c                          0x00000000   Number         0  heap2.o ABSOLUTE
    ../clib/heap2.c                          0x00000000   Number         0  fdtree.o ABSOLUTE
    ../clib/heapalloc.c                      0x00000000   Number         0  malloc.o ABSOLUTE
    ../clib/heapalloc.c                      0x00000000   Number         0  term_alloc.o ABSOLUTE
    ../clib/heapalloc.c                      0x00000000   Number         0  init_alloc.o ABSOLUTE
    ../clib/heapalloc.c                      0x00000000   Number         0  hrguard.o ABSOLUTE
    ../clib/heapalloc.c                      0x00000000   Number         0  free.o ABSOLUTE
    ../clib/heapalloc.c                      0x00000000   Number         0  maybetermalloc1.o ABSOLUTE
    ../clib/heapalloc.c                      0x00000000   Number         0  maybetermalloc1.o ABSOLUTE
    ../clib/heapalloc.c                      0x00000000   Number         0  maybetermalloc2.o ABSOLUTE
    ../clib/heapalloc.c                      0x00000000   Number         0  maybetermalloc2.o ABSOLUTE
    ../clib/heapalloc.c                      0x00000000   Number         0  hguard.o ABSOLUTE
    ../clib/heapalloc.c                      0x00000000   Number         0  heapstubs.o ABSOLUTE
    ../clib/heapaux.c                        0x00000000   Number         0  heapauxa.o ABSOLUTE
    ../clib/heapaux.c                        0x00000000   Number         0  heapauxi.o ABSOLUTE
    ../clib/libinit.s                        0x00000000   Number         0  libinit2.o ABSOLUTE
    ../clib/libinit.s                        0x00000000   Number         0  libshutdown2.o ABSOLUTE
    ../clib/libinit.s                        0x00000000   Number         0  libinit.o ABSOLUTE
    ../clib/locale.c                         0x00000000   Number         0  _wcrtomb.o ABSOLUTE
    ../clib/locale.s                         0x00000000   Number         0  lc_numeric_c.o ABSOLUTE
    ../clib/locale.s                         0x00000000   Number         0  lc_ctype_c.o ABSOLUTE
    ../clib/longlong.s                       0x00000000   Number         0  lludiv10.o ABSOLUTE
    ../clib/memcpset.s                       0x00000000   Number         0  rt_memclr.o ABSOLUTE
    ../clib/memcpset.s                       0x00000000   Number         0  rt_memcpy_v6.o ABSOLUTE
    ../clib/memcpset.s                       0x00000000   Number         0  rt_memcpy_w.o ABSOLUTE
    ../clib/memcpset.s                       0x00000000   Number         0  rt_memmove_w.o ABSOLUTE
    ../clib/memcpset.s                       0x00000000   Number         0  rt_memclr_w.o ABSOLUTE
    ../clib/memcpset.s                       0x00000000   Number         0  strncpy.o ABSOLUTE
    ../clib/memcpset.s                       0x00000000   Number         0  strcmpv7m.o ABSOLUTE
    ../clib/misc.s                           0x00000000   Number         0  printf_stubs.o ABSOLUTE
    ../clib/printf.c                         0x00000000   Number         0  vfprintf.o ABSOLUTE
    ../clib/printf.c                         0x00000000   Number         0  _printf_hex_ptr.o ABSOLUTE
    ../clib/printf.c                         0x00000000   Number         0  _printf_hex_int_ll.o ABSOLUTE
    ../clib/printf.c                         0x00000000   Number         0  _printf_hex_int.o ABSOLUTE
    ../clib/printf.c                         0x00000000   Number         0  _printf_hex_ll.o ABSOLUTE
    ../clib/printf.c                         0x00000000   Number         0  _printf_charcount.o ABSOLUTE
    ../clib/printf.c                         0x00000000   Number         0  __printf_flags_ss.o ABSOLUTE
    ../clib/printf.c                         0x00000000   Number         0  _printf_intcommon.o ABSOLUTE
    ../clib/printf.c                         0x00000000   Number         0  _printf_pad.o ABSOLUTE
    ../clib/printf.c                         0x00000000   Number         0  noretval__2sprintf.o ABSOLUTE
    ../clib/printf.c                         0x00000000   Number         0  _printf_oct_int_ll.o ABSOLUTE
    ../clib/printf.c                         0x00000000   Number         0  __printf.o ABSOLUTE
    ../clib/printf.c                         0x00000000   Number         0  _printf_oct_int.o ABSOLUTE
    ../clib/printf.c                         0x00000000   Number         0  _printf_oct_ll.o ABSOLUTE
    ../clib/printf.c                         0x00000000   Number         0  _printf_longlong_dec.o ABSOLUTE
    ../clib/printf.c                         0x00000000   Number         0  _printf_wctomb.o ABSOLUTE
    ../clib/printf.c                         0x00000000   Number         0  _printf_char_file.o ABSOLUTE
    ../clib/printf.c                         0x00000000   Number         0  _printf_str.o ABSOLUTE
    ../clib/printf.c                         0x00000000   Number         0  _printf_char.o ABSOLUTE
    ../clib/printf.c                         0x00000000   Number         0  _printf_char_file_locked.o ABSOLUTE
    ../clib/printf.c                         0x00000000   Number         0  _printf_dec.o ABSOLUTE
    ../clib/printf.c                         0x00000000   Number         0  __printf_flags.o ABSOLUTE
    ../clib/printf.c                         0x00000000   Number         0  __printf_ss.o ABSOLUTE
    ../clib/printf.c                         0x00000000   Number         0  __printf_wp.o ABSOLUTE
    ../clib/printf.c                         0x00000000   Number         0  __printf_flags_wp.o ABSOLUTE
    ../clib/printf.c                         0x00000000   Number         0  __printf_ss_wp.o ABSOLUTE
    ../clib/printf.c                         0x00000000   Number         0  __printf_flags_ss_wp.o ABSOLUTE
    ../clib/printf.c                         0x00000000   Number         0  __printf_nopercent.o ABSOLUTE
    ../clib/printf.c                         0x00000000   Number         0  noretval__2printf.o ABSOLUTE
    ../clib/printf.c                         0x00000000   Number         0  _printf_wchar.o ABSOLUTE
    ../clib/printf.c                         0x00000000   Number         0  __2sprintf.o ABSOLUTE
    ../clib/printf.c                         0x00000000   Number         0  _printf_char_common.o ABSOLUTE
    ../clib/printf.c                         0x00000000   Number         0  _printf_truncate.o ABSOLUTE
    ../clib/printf.c                         0x00000000   Number         0  _printf_fp_dec.o ABSOLUTE
    ../clib/printf.c                         0x00000000   Number         0  _printf_hex_int_ptr.o ABSOLUTE
    ../clib/printf.c                         0x00000000   Number         0  __2fprintf.o ABSOLUTE
    ../clib/printf.c                         0x00000000   Number         0  _printf_hex_int_ll_ptr.o ABSOLUTE
    ../clib/printf.c                         0x00000000   Number         0  _printf_hex_ll_ptr.o ABSOLUTE
    ../clib/printf.c                         0x00000000   Number         0  noretval__2fprintf.o ABSOLUTE
    ../clib/printf.c                         0x00000000   Number         0  __2printf.o ABSOLUTE
    ../clib/printf.c                         0x00000000   Number         0  _sputc.o ABSOLUTE
    ../clib/printf.c                         0x00000000   Number         0  c89vfprintf.o ABSOLUTE
    ../clib/printf.c                         0x00000000   Number         0  _printf_fp_hex.o ABSOLUTE
    ../clib/printf.c                         0x00000000   Number         0  _printf_fp_infnan.o ABSOLUTE
    ../clib/printf_percent.s                 0x00000000   Number         0  _printf_llo.o ABSOLUTE
    ../clib/printf_percent.s                 0x00000000   Number         0  _printf_percent.o ABSOLUTE
    ../clib/printf_percent.s                 0x00000000   Number         0  _printf_llx.o ABSOLUTE
    ../clib/printf_percent.s                 0x00000000   Number         0  _printf_c.o ABSOLUTE
    ../clib/printf_percent.s                 0x00000000   Number         0  _printf_s.o ABSOLUTE
    ../clib/printf_percent.s                 0x00000000   Number         0  _printf_d.o ABSOLUTE
    ../clib/printf_percent.s                 0x00000000   Number         0  _printf_f.o ABSOLUTE
    ../clib/printf_percent.s                 0x00000000   Number         0  _printf_ls.o ABSOLUTE
    ../clib/printf_percent.s                 0x00000000   Number         0  _printf_lc.o ABSOLUTE
    ../clib/printf_percent.s                 0x00000000   Number         0  _printf_l.o ABSOLUTE
    ../clib/printf_percent.s                 0x00000000   Number         0  _printf_ll.o ABSOLUTE
    ../clib/printf_percent.s                 0x00000000   Number         0  _printf_llu.o ABSOLUTE
    ../clib/printf_percent.s                 0x00000000   Number         0  _printf_lld.o ABSOLUTE
    ../clib/printf_percent.s                 0x00000000   Number         0  _printf_lli.o ABSOLUTE
    ../clib/printf_percent.s                 0x00000000   Number         0  _printf_percent_end.o ABSOLUTE
    ../clib/printf_percent.s                 0x00000000   Number         0  _printf_a.o ABSOLUTE
    ../clib/printf_percent.s                 0x00000000   Number         0  _printf_g.o ABSOLUTE
    ../clib/printf_percent.s                 0x00000000   Number         0  _printf_e.o ABSOLUTE
    ../clib/printf_percent.s                 0x00000000   Number         0  _printf_u.o ABSOLUTE
    ../clib/printf_percent.s                 0x00000000   Number         0  _printf_i.o ABSOLUTE
    ../clib/printf_percent.s                 0x00000000   Number         0  _printf_o.o ABSOLUTE
    ../clib/printf_percent.s                 0x00000000   Number         0  _printf_p.o ABSOLUTE
    ../clib/printf_percent.s                 0x00000000   Number         0  _printf_x.o ABSOLUTE
    ../clib/printf_percent.s                 0x00000000   Number         0  _printf_n.o ABSOLUTE
    ../clib/scanf.c                          0x00000000   Number         0  __0sscanf.o ABSOLUTE
    ../clib/scanf.c                          0x00000000   Number         0  _sgetc.o ABSOLUTE
    ../clib/scanf.c                          0x00000000   Number         0  scanf_char.o ABSOLUTE
    ../clib/scanf.c                          0x00000000   Number         0  _chval.o ABSOLUTE
    ../clib/scanf.c                          0x00000000   Number         0  _scanf_int.o ABSOLUTE
    ../clib/scanf.c                          0x00000000   Number         0  _scanf.o ABSOLUTE
    ../clib/signal.c                         0x00000000   Number         0  defsig_segv_inner.o ABSOLUTE
    ../clib/signal.c                         0x00000000   Number         0  defsig_pvfn_outer.o ABSOLUTE
    ../clib/signal.c                         0x00000000   Number         0  defsig_pvfn_formal.o ABSOLUTE
    ../clib/signal.c                         0x00000000   Number         0  defsig_rtmem_outer.o ABSOLUTE
    ../clib/signal.c                         0x00000000   Number         0  defsig_stak_inner.o ABSOLUTE
    ../clib/signal.c                         0x00000000   Number         0  defsig_rtred_inner.o ABSOLUTE
    ../clib/signal.c                         0x00000000   Number         0  defsig_general.o ABSOLUTE
    ../clib/signal.c                         0x00000000   Number         0  __raise.o ABSOLUTE
    ../clib/signal.c                         0x00000000   Number         0  defsig_rtmem_formal.o ABSOLUTE
    ../clib/signal.c                         0x00000000   Number         0  defsig_fpe_inner.o ABSOLUTE
    ../clib/signal.c                         0x00000000   Number         0  defsig_cppl_inner.o ABSOLUTE
    ../clib/signal.c                         0x00000000   Number         0  defsig_other.o ABSOLUTE
    ../clib/signal.c                         0x00000000   Number         0  defsig_abrt_inner.o ABSOLUTE
    ../clib/signal.c                         0x00000000   Number         0  defsig_pvfn_inner.o ABSOLUTE
    ../clib/signal.c                         0x00000000   Number         0  defsig_rtred_formal.o ABSOLUTE
    ../clib/signal.c                         0x00000000   Number         0  defsig_rtmem_inner.o ABSOLUTE
    ../clib/signal.c                         0x00000000   Number         0  defsig_rtred_outer.o ABSOLUTE
    ../clib/signal.c                         0x00000000   Number         0  defsig_abrt_formal.o ABSOLUTE
    ../clib/signal.c                         0x00000000   Number         0  defsig_exit.o ABSOLUTE
    ../clib/signal.c                         0x00000000   Number         0  defsig_abrt_outer.o ABSOLUTE
    ../clib/signal.s                         0x00000000   Number         0  defsig.o ABSOLUTE
    ../clib/stdio.c                          0x00000000   Number         0  flsbuf.o ABSOLUTE
    ../clib/stdio.c                          0x00000000   Number         0  ferror_locked.o ABSOLUTE
    ../clib/stdio.c                          0x00000000   Number         0  fopen_locked.o ABSOLUTE
    ../clib/stdio.c                          0x00000000   Number         0  fflush_locked.o ABSOLUTE
    ../clib/stdio.c                          0x00000000   Number         0  fputs.o ABSOLUTE
    ../clib/stdio.c                          0x00000000   Number         0  fputs_locked.o ABSOLUTE
    ../clib/stdio.c                          0x00000000   Number         0  fflush.o ABSOLUTE
    ../clib/stdio.c                          0x00000000   Number         0  fclose_locked.o ABSOLUTE
    ../clib/stdio.c                          0x00000000   Number         0  fwritefast.o ABSOLUTE
    ../clib/stdio.c                          0x00000000   Number         0  fclose.o ABSOLUTE
    ../clib/stdio.c                          0x00000000   Number         0  stdio_streams.o ABSOLUTE
    ../clib/stdio.c                          0x00000000   Number         0  fopen.o ABSOLUTE
    ../clib/stdio.c                          0x00000000   Number         0  fwritefast_locked.o ABSOLUTE
    ../clib/stdio.c                          0x00000000   Number         0  fseek.o ABSOLUTE
    ../clib/stdio.c                          0x00000000   Number         0  fputc_locked.o ABSOLUTE
    ../clib/stdio.c                          0x00000000   Number         0  setvbuf.o ABSOLUTE
    ../clib/stdio.c                          0x00000000   Number         0  ftell.o ABSOLUTE
    ../clib/stdio.c                          0x00000000   Number         0  fputc.o ABSOLUTE
    ../clib/stdio.c                          0x00000000   Number         0  ferror.o ABSOLUTE
    ../clib/stdio.c                          0x00000000   Number         0  setvbuf_locked.o ABSOLUTE
    ../clib/stdio.c                          0x00000000   Number         0  stdio.o ABSOLUTE
    ../clib/stdio.c                          0x00000000   Number         0  streamlock.o ABSOLUTE
    ../clib/stdio.c                          0x00000000   Number         0  initio.o ABSOLUTE
    ../clib/stdio.c                          0x00000000   Number         0  initio_locked.o ABSOLUTE
    ../clib/stdlib.c                         0x00000000   Number         0  abort.o ABSOLUTE
    ../clib/stdlib.c                         0x00000000   Number         0  bsearchnoex.o ABSOLUTE
    ../clib/stdlib.c                         0x00000000   Number         0  atexit_cpp.o ABSOLUTE
    ../clib/string.c                         0x00000000   Number         0  strncmp.o ABSOLUTE
    ../clib/string.c                         0x00000000   Number         0  strlen.o ABSOLUTE
    ../clib/time.c                           0x00000000   Number         0  _monlen.o ABSOLUTE
    ../clib/time.c                           0x00000000   Number         0  localtime.o ABSOLUTE
    ../clib/time.c                           0x00000000   Number         0  mktime.o ABSOLUTE
    ../clib/time.c                           0x00000000   Number         0  localtime_internal.o ABSOLUTE
    ../clib/unwind_pr.c                      0x00000000   Number         0  unwind_prcommon.o ABSOLUTE
    ../clib/unwind_pr.c                      0x00000000   Number         0  unwind_pr0.o ABSOLUTE
    ../clib/unwinder.c                       0x00000000   Number         0  unwinder.o ABSOLUTE
    ../clib/unwinder.c                       0x00000000   Number         0  unwinder.o ABSOLUTE
    ../clib/unwinder.c                       0x00000000   Number         0  unwind_activity.o ABSOLUTE
    ../clib/unwinder.c                       0x00000000   Number         0  unwind_activity.o ABSOLUTE
    ../clib/wchar.c                          0x00000000   Number         0  flsbuf_fwide.o ABSOLUTE
    ../fplib/daddsub.s                       0x00000000   Number         0  daddsub_clz.o ABSOLUTE
    ../fplib/dcmpi.s                         0x00000000   Number         0  dcmpi.o ABSOLUTE
    ../fplib/dfix.s                          0x00000000   Number         0  dfix.o ABSOLUTE
    ../fplib/dleqf.s                         0x00000000   Number         0  dleqf.o ABSOLUTE
    ../fplib/dnaninf.s                       0x00000000   Number         0  dnaninf.o ABSOLUTE
    ../fplib/dretinf.s                       0x00000000   Number         0  dretinf.o ABSOLUTE
    ../fplib/drleqf.s                        0x00000000   Number         0  drleqf.o ABSOLUTE
    ../fplib/f2d.s                           0x00000000   Number         0  f2d.o ABSOLUTE
    ../fplib/fnaninf.s                       0x00000000   Number         0  fnaninf.o ABSOLUTE
    ../fplib/fpinit.s                        0x00000000   Number         0  fpinit.o ABSOLUTE
    ../fplib/istatus.s                       0x00000000   Number         0  istatus.o ABSOLUTE
    ../fplib/printf1.s                       0x00000000   Number         0  printf1.o ABSOLUTE
    ../fplib/printf2.s                       0x00000000   Number         0  printf2.o ABSOLUTE
    ../fplib/printf2a.s                      0x00000000   Number         0  printf2a.o ABSOLUTE
    ../fplib/printf2b.s                      0x00000000   Number         0  printf2b.o ABSOLUTE
    ../fplib/usenofp.s                       0x00000000   Number         0  usenofp.o ABSOLUTE
    ../mathlib/floor.c                       0x00000000   Number         0  floor.o ABSOLUTE
    ../mathlib/fpclassify.c                  0x00000000   Number         0  fpclassify.o ABSOLUTE
    C:\\work\\mbed\\github\\libraries\\mbed\\common\\FileBase.cpp 0x00000000   Number         0  FileBase.o ABSOLUTE
    C:\\work\\mbed\\github\\libraries\\mbed\\common\\FilePath.cpp 0x00000000   Number         0  FilePath.o ABSOLUTE
    C:\\work\\mbed\\github\\libraries\\mbed\\common\\FileSystemLike.cpp 0x00000000   Number         0  FileSystemLike.o ABSOLUTE
    C:\\work\\mbed\\github\\libraries\\mbed\\common\\SPI.cpp 0x00000000   Number         0  SPI.o ABSOLUTE
    C:\\work\\mbed\\github\\libraries\\mbed\\common\\TimerEvent.cpp 0x00000000   Number         0  TimerEvent.o ABSOLUTE
    C:\\work\\mbed\\github\\libraries\\mbed\\common\\assert.c 0x00000000   Number         0  assert.o ABSOLUTE
    C:\\work\\mbed\\github\\libraries\\mbed\\common\\board.c 0x00000000   Number         0  board.o ABSOLUTE
    C:\\work\\mbed\\github\\libraries\\mbed\\common\\error.c 0x00000000   Number         0  error.o ABSOLUTE
    C:\\work\\mbed\\github\\libraries\\mbed\\common\\exit.c 0x00000000   Number         0  exit.o ABSOLUTE
    C:\\work\\mbed\\github\\libraries\\mbed\\common\\gpio.c 0x00000000   Number         0  gpio.o ABSOLUTE
    C:\\work\\mbed\\github\\libraries\\mbed\\common\\pinmap_common.c 0x00000000   Number         0  pinmap_common.o ABSOLUTE
    C:\\work\\mbed\\github\\libraries\\mbed\\common\\retarget.cpp 0x00000000   Number         0  retarget.o ABSOLUTE
    C:\\work\\mbed\\github\\libraries\\mbed\\common\\rtc_time.c 0x00000000   Number         0  rtc_time.o ABSOLUTE
    C:\\work\\mbed\\github\\libraries\\mbed\\common\\us_ticker_api.c 0x00000000   Number         0  us_ticker_api.o ABSOLUTE
    C:\\work\\mbed\\github\\libraries\\mbed\\targets\\cmsis\\TARGET_NXP\\TARGET_LPC408X\\TOOLCHAIN_ARM_STD\\startup_LPC407x_8x_177x_8x.s 0x00000000   Number         0  startup_LPC407x_8x_177x_8x.o ABSOLUTE
    C:\\work\\mbed\\github\\libraries\\mbed\\targets\\cmsis\\TARGET_NXP\\TARGET_LPC408X\\cmsis_nvic.c 0x00000000   Number         0  cmsis_nvic.o ABSOLUTE
    C:\\work\\mbed\\github\\libraries\\mbed\\targets\\cmsis\\TARGET_NXP\\TARGET_LPC408X\\system_LPC407x_8x_177x_8x.c 0x00000000   Number         0  system_LPC407x_8x_177x_8x.o ABSOLUTE
    C:\\work\\mbed\\github\\libraries\\mbed\\targets\\hal\\TARGET_NXP\\TARGET_LPC408X\\gpio_api.c 0x00000000   Number         0  gpio_api.o ABSOLUTE
    C:\\work\\mbed\\github\\libraries\\mbed\\targets\\hal\\TARGET_NXP\\TARGET_LPC408X\\pinmap.c 0x00000000   Number         0  pinmap.o ABSOLUTE
    C:\\work\\mbed\\github\\libraries\\mbed\\targets\\hal\\TARGET_NXP\\TARGET_LPC408X\\rtc_api.c 0x00000000   Number         0  rtc_api.o ABSOLUTE
    C:\\work\\mbed\\github\\libraries\\mbed\\targets\\hal\\TARGET_NXP\\TARGET_LPC408X\\serial_api.c 0x00000000   Number         0  serial_api.o ABSOLUTE
    C:\\work\\mbed\\github\\libraries\\mbed\\targets\\hal\\TARGET_NXP\\TARGET_LPC408X\\spi_api.c 0x00000000   Number         0  spi_api.o ABSOLUTE
    C:\\work\\mbed\\github\\libraries\\mbed\\targets\\hal\\TARGET_NXP\\TARGET_LPC408X\\us_ticker.c 0x00000000   Number         0  us_ticker.o ABSOLUTE
    C:\work\mbed\github\libraries\mbed\common\FileBase.cpp 0x00000000   Number         0  FileBase.o ABSOLUTE
    C:\work\mbed\github\libraries\mbed\common\FilePath.cpp 0x00000000   Number         0  FilePath.o ABSOLUTE
    C:\work\mbed\github\libraries\mbed\common\FileSystemLike.cpp 0x00000000   Number         0  FileSystemLike.o ABSOLUTE
    C:\work\mbed\github\libraries\mbed\common\FunctionPointer.cpp 0x00000000   Number         0  FunctionPointer.o ABSOLUTE
    C:\work\mbed\github\libraries\mbed\common\SPI.cpp 0x00000000   Number         0  SPI.o ABSOLUTE
    C:\work\mbed\github\libraries\mbed\common\Ticker.cpp 0x00000000   Number         0  Ticker.o ABSOLUTE
    C:\work\mbed\github\libraries\mbed\common\TimerEvent.cpp 0x00000000   Number         0  TimerEvent.o ABSOLUTE
    C:\work\mbed\github\libraries\mbed\common\assert.c 0x00000000   Number         0  assert.o ABSOLUTE
    C:\work\mbed\github\libraries\mbed\common\board.c 0x00000000   Number         0  board.o ABSOLUTE
    C:\work\mbed\github\libraries\mbed\common\error.c 0x00000000   Number         0  error.o ABSOLUTE
    C:\work\mbed\github\libraries\mbed\common\exit.c 0x00000000   Number         0  exit.o ABSOLUTE
    C:\work\mbed\github\libraries\mbed\common\gpio.c 0x00000000   Number         0  gpio.o ABSOLUTE
    C:\work\mbed\github\libraries\mbed\common\pinmap_common.c 0x00000000   Number         0  pinmap_common.o ABSOLUTE
    C:\work\mbed\github\libraries\mbed\common\retarget.cpp 0x00000000   Number         0  retarget.o ABSOLUTE
    C:\work\mbed\github\libraries\mbed\common\rtc_time.c 0x00000000   Number         0  rtc_time.o ABSOLUTE
    C:\work\mbed\github\libraries\mbed\common\us_ticker_api.c 0x00000000   Number         0  us_ticker_api.o ABSOLUTE
    C:\work\mbed\github\libraries\mbed\common\wait_api.c 0x00000000   Number         0  wait_api.o ABSOLUTE
    C:\work\mbed\github\libraries\mbed\targets\cmsis\TARGET_NXP\TARGET_LPC408X\TOOLCHAIN_ARM_STD\sys.cpp 0x00000000   Number         0  sys.o ABSOLUTE
    C:\work\mbed\github\libraries\mbed\targets\cmsis\TARGET_NXP\TARGET_LPC408X\TOOLCHAIN_ARM_STD\sys_helper.cpp 0x00000000   Number         0  sys_helper.o ABSOLUTE
    C:\work\mbed\github\libraries\mbed\targets\cmsis\TARGET_NXP\TARGET_LPC408X\cmsis_nvic.c 0x00000000   Number         0  cmsis_nvic.o ABSOLUTE
    C:\work\mbed\github\libraries\mbed\targets\cmsis\TARGET_NXP\TARGET_LPC408X\system_LPC407x_8x_177x_8x.c 0x00000000   Number         0  system_LPC407x_8x_177x_8x.o ABSOLUTE
    C:\work\mbed\github\libraries\mbed\targets\hal\TARGET_NXP\TARGET_LPC408X\gpio_api.c 0x00000000   Number         0  gpio_api.o ABSOLUTE
    C:\work\mbed\github\libraries\mbed\targets\hal\TARGET_NXP\TARGET_LPC408X\pinmap.c 0x00000000   Number         0  pinmap.o ABSOLUTE
    C:\work\mbed\github\libraries\mbed\targets\hal\TARGET_NXP\TARGET_LPC408X\rtc_api.c 0x00000000   Number         0  rtc_api.o ABSOLUTE
    C:\work\mbed\github\libraries\mbed\targets\hal\TARGET_NXP\TARGET_LPC408X\serial_api.c 0x00000000   Number         0  serial_api.o ABSOLUTE
    C:\work\mbed\github\libraries\mbed\targets\hal\TARGET_NXP\TARGET_LPC408X\spi_api.c 0x00000000   Number         0  spi_api.o ABSOLUTE
    C:\work\mbed\github\libraries\mbed\targets\hal\TARGET_NXP\TARGET_LPC408X\us_ticker.c 0x00000000   Number         0  us_ticker.o ABSOLUTE
    SDFileSystem/FATFileSystem/ChaN/ccsbcs.cpp 0x00000000   Number         0  ccsbcs.o ABSOLUTE
    SDFileSystem/FATFileSystem/ChaN/diskio.cpp 0x00000000   Number         0  diskio.o ABSOLUTE
    SDFileSystem/FATFileSystem/ChaN/ff.cpp   0x00000000   Number         0  ff.o ABSOLUTE
    SDFileSystem/FATFileSystem/FATDirHandle.cpp 0x00000000   Number         0  fatdirhandle.o ABSOLUTE
    SDFileSystem/FATFileSystem/FATFileHandle.cpp 0x00000000   Number         0  fatfilehandle.o ABSOLUTE
    SDFileSystem/FATFileSystem/FATFileSystem.cpp 0x00000000   Number         0  fatfilesystem.o ABSOLUTE
    SDFileSystem/SDFileSystem.cpp            0x00000000   Number         0  sdfilesystem.o ABSOLUTE
    SDFileSystem\FATFileSystem\ChaN\diskio.cpp 0x00000000   Number         0  diskio.o ABSOLUTE
    SDFileSystem\FATFileSystem\FATFileHandle.cpp 0x00000000   Number         0  fatfilehandle.o ABSOLUTE
    SDFileSystem\FATFileSystem\FATFileSystem.cpp 0x00000000   Number         0  fatfilesystem.o ABSOLUTE
    SDFileSystem\SDFileSystem.cpp            0x00000000   Number         0  sdfilesystem.o ABSOLUTE
    dc.s                                     0x00000000   Number         0  dc.o ABSOLUTE
    main.cpp                                 0x00000000   Number         0  main.o ABSOLUTE
    main.cpp                                 0x00000000   Number         0  main.o ABSOLUTE
    !!!main                                  0x000000e4   Section        8  __main.o(!!!main)
    !!!scatter                               0x000000ec   Section       52  __scatter.o(!!!scatter)
    !!handler_copy                           0x00000120   Section       26  __scatter_copy.o(!!handler_copy)
    !!handler_zi                             0x0000013c   Section       28  __scatter_zi.o(!!handler_zi)
    .ARM.Collect$$_printf_percent$$00000000  0x00000158   Section        0  _printf_percent.o(.ARM.Collect$$_printf_percent$$00000000)
    .ARM.Collect$$_printf_percent$$00000001  0x00000158   Section        6  _printf_n.o(.ARM.Collect$$_printf_percent$$00000001)
    .ARM.Collect$$_printf_percent$$00000002  0x0000015e   Section        6  _printf_p.o(.ARM.Collect$$_printf_percent$$00000002)
    .ARM.Collect$$_printf_percent$$00000003  0x00000164   Section        6  _printf_f.o(.ARM.Collect$$_printf_percent$$00000003)
    .ARM.Collect$$_printf_percent$$00000004  0x0000016a   Section        6  _printf_e.o(.ARM.Collect$$_printf_percent$$00000004)
    .ARM.Collect$$_printf_percent$$00000005  0x00000170   Section        6  _printf_g.o(.ARM.Collect$$_printf_percent$$00000005)
    .ARM.Collect$$_printf_percent$$00000006  0x00000176   Section        6  _printf_a.o(.ARM.Collect$$_printf_percent$$00000006)
    .ARM.Collect$$_printf_percent$$00000007  0x0000017c   Section       10  _printf_ll.o(.ARM.Collect$$_printf_percent$$00000007)
    .ARM.Collect$$_printf_percent$$00000008  0x00000186   Section        6  _printf_i.o(.ARM.Collect$$_printf_percent$$00000008)
    .ARM.Collect$$_printf_percent$$00000009  0x0000018c   Section        6  _printf_d.o(.ARM.Collect$$_printf_percent$$00000009)
    .ARM.Collect$$_printf_percent$$0000000A  0x00000192   Section        6  _printf_u.o(.ARM.Collect$$_printf_percent$$0000000A)
    .ARM.Collect$$_printf_percent$$0000000B  0x00000198   Section        6  _printf_o.o(.ARM.Collect$$_printf_percent$$0000000B)
    .ARM.Collect$$_printf_percent$$0000000C  0x0000019e   Section        6  _printf_x.o(.ARM.Collect$$_printf_percent$$0000000C)
    .ARM.Collect$$_printf_percent$$0000000D  0x000001a4   Section        6  _printf_lli.o(.ARM.Collect$$_printf_percent$$0000000D)
    .ARM.Collect$$_printf_percent$$0000000E  0x000001aa   Section        6  _printf_lld.o(.ARM.Collect$$_printf_percent$$0000000E)
    .ARM.Collect$$_printf_percent$$0000000F  0x000001b0   Section        6  _printf_llu.o(.ARM.Collect$$_printf_percent$$0000000F)
    .ARM.Collect$$_printf_percent$$00000010  0x000001b6   Section        6  _printf_llo.o(.ARM.Collect$$_printf_percent$$00000010)
    .ARM.Collect$$_printf_percent$$00000011  0x000001bc   Section        6  _printf_llx.o(.ARM.Collect$$_printf_percent$$00000011)
    .ARM.Collect$$_printf_percent$$00000012  0x000001c2   Section       10  _printf_l.o(.ARM.Collect$$_printf_percent$$00000012)
    .ARM.Collect$$_printf_percent$$00000013  0x000001cc   Section        6  _printf_c.o(.ARM.Collect$$_printf_percent$$00000013)
    .ARM.Collect$$_printf_percent$$00000014  0x000001d2   Section        6  _printf_s.o(.ARM.Collect$$_printf_percent$$00000014)
    .ARM.Collect$$_printf_percent$$00000015  0x000001d8   Section        6  _printf_lc.o(.ARM.Collect$$_printf_percent$$00000015)
    .ARM.Collect$$_printf_percent$$00000016  0x000001de   Section        6  _printf_ls.o(.ARM.Collect$$_printf_percent$$00000016)
    .ARM.Collect$$_printf_percent$$00000017  0x000001e4   Section        4  _printf_percent_end.o(.ARM.Collect$$_printf_percent$$00000017)
    .ARM.Collect$$libinit$$00000000          0x000001e8   Section        2  libinit.o(.ARM.Collect$$libinit$$00000000)
    .ARM.Collect$$libinit$$00000001          0x000001ea   Section        4  libinit2.o(.ARM.Collect$$libinit$$00000001)
    .ARM.Collect$$libinit$$00000003          0x000001ee   Section        8  libinit2.o(.ARM.Collect$$libinit$$00000003)
    .ARM.Collect$$libinit$$00000008          0x000001f6   Section        0  libinit2.o(.ARM.Collect$$libinit$$00000008)
    .ARM.Collect$$libinit$$0000000A          0x000001f6   Section        0  libinit2.o(.ARM.Collect$$libinit$$0000000A)
    .ARM.Collect$$libinit$$0000000C          0x000001f6   Section        0  libinit2.o(.ARM.Collect$$libinit$$0000000C)
    .ARM.Collect$$libinit$$0000000D          0x000001f6   Section        6  libinit2.o(.ARM.Collect$$libinit$$0000000D)
    .ARM.Collect$$libinit$$0000000F          0x000001fc   Section        0  libinit2.o(.ARM.Collect$$libinit$$0000000F)
    .ARM.Collect$$libinit$$00000010          0x000001fc   Section       12  libinit2.o(.ARM.Collect$$libinit$$00000010)
    .ARM.Collect$$libinit$$00000011          0x00000208   Section        0  libinit2.o(.ARM.Collect$$libinit$$00000011)
    .ARM.Collect$$libinit$$00000013          0x00000208   Section        0  libinit2.o(.ARM.Collect$$libinit$$00000013)
    .ARM.Collect$$libinit$$00000014          0x00000208   Section       10  libinit2.o(.ARM.Collect$$libinit$$00000014)
    .ARM.Collect$$libinit$$00000015          0x00000212   Section        0  libinit2.o(.ARM.Collect$$libinit$$00000015)
    .ARM.Collect$$libinit$$00000017          0x00000212   Section        0  libinit2.o(.ARM.Collect$$libinit$$00000017)
    .ARM.Collect$$libinit$$00000019          0x00000212   Section        0  libinit2.o(.ARM.Collect$$libinit$$00000019)
    .ARM.Collect$$libinit$$0000001B          0x00000212   Section        0  libinit2.o(.ARM.Collect$$libinit$$0000001B)
    .ARM.Collect$$libinit$$0000001D          0x00000212   Section        0  libinit2.o(.ARM.Collect$$libinit$$0000001D)
    .ARM.Collect$$libinit$$0000001F          0x00000212   Section        0  libinit2.o(.ARM.Collect$$libinit$$0000001F)
    .ARM.Collect$$libinit$$00000021          0x00000212   Section        0  libinit2.o(.ARM.Collect$$libinit$$00000021)
    .ARM.Collect$$libinit$$00000022          0x00000212   Section        4  libinit2.o(.ARM.Collect$$libinit$$00000022)
    .ARM.Collect$$libinit$$00000023          0x00000216   Section        0  libinit2.o(.ARM.Collect$$libinit$$00000023)
    .ARM.Collect$$libinit$$0000002A          0x00000216   Section        0  libinit2.o(.ARM.Collect$$libinit$$0000002A)
    .ARM.Collect$$libinit$$0000002C          0x00000216   Section        0  libinit2.o(.ARM.Collect$$libinit$$0000002C)
    .ARM.Collect$$libinit$$0000002E          0x00000216   Section        0  libinit2.o(.ARM.Collect$$libinit$$0000002E)
    .ARM.Collect$$libinit$$0000002F          0x00000216   Section        4  libinit2.o(.ARM.Collect$$libinit$$0000002F)
    .ARM.Collect$$libinit$$00000030          0x0000021a   Section        0  libinit2.o(.ARM.Collect$$libinit$$00000030)
    .ARM.Collect$$libinit$$00000031          0x0000021a   Section        2  libinit2.o(.ARM.Collect$$libinit$$00000031)
    .ARM.Collect$$libshutdown$$00000001      0x0000021c   Section        6  libshutdown2.o(.ARM.Collect$$libshutdown$$00000001)
    .ARM.Collect$$libshutdown$$00000003      0x00000222   Section        0  libshutdown2.o(.ARM.Collect$$libshutdown$$00000003)
    .ARM.Collect$$rtentry$$00000000          0x00000222   Section        0  rtentry.o(.ARM.Collect$$rtentry$$00000000)
    .ARM.Collect$$rtentry$$00000002          0x00000222   Section        0  rtentry2.o(.ARM.Collect$$rtentry$$00000002)
    .ARM.Collect$$rtentry$$00000004          0x00000222   Section        6  rtentry4.o(.ARM.Collect$$rtentry$$00000004)
    .ARM.Collect$$rtentry$$00000009          0x00000228   Section        0  rtentry2.o(.ARM.Collect$$rtentry$$00000009)
    .ARM.Collect$$rtentry$$0000000A          0x00000228   Section        4  rtentry2.o(.ARM.Collect$$rtentry$$0000000A)
    .ARM.Collect$$rtentry$$0000000C          0x0000022c   Section        0  rtentry2.o(.ARM.Collect$$rtentry$$0000000C)
    .ARM.Collect$$rtentry$$0000000D          0x0000022c   Section        8  rtentry2.o(.ARM.Collect$$rtentry$$0000000D)
    .emb_text                                0x00000234   Section        0  maybetermalloc1.o(.emb_text)
    .text                                    0x00000234   Section        0  fatdirhandle.o(.text)
    .text                                    0x000002bc   Section       36  startup_LPC407x_8x_177x_8x.o(.text)
    $v0                                      0x000002bc   Number         0  startup_LPC407x_8x_177x_8x.o(.text)
    .text                                    0x000002e0   Section        0  vfprintf.o(.text)
    .text                                    0x000002ea   Section        0  c89vfprintf.o(.text)
    .text                                    0x000002f4   Section        8  rt_new_handler_addr.o(.text)
    .ARM.__at_0x02FC                         0x000002fc   Section        4  startup_LPC407x_8x_177x_8x.o(.ARM.__at_0x02FC)
    .text                                    0x00000300   Section        0  main.o(.text)
    __sti___8_main_cpp_sd                    0x000003d9   Thumb Code    72  main.o(.text)
    .text                                    0x000004d4   Section        0  sdfilesystem.o(.text)
    debug_if(int, const char*, ...)          0x000004d5   Thumb Code    36  sdfilesystem.o(.text)
    ext_bits(unsigned char*, int, int)       0x000004f9   Thumb Code    62  sdfilesystem.o(.text)
    debug(const char*, ...)                  0x00000d69   Thumb Code    28  sdfilesystem.o(.text)
    .text                                    0x00000e68   Section        0  fatfilesystem.o(.text)
    debug_if(int, const char*, ...)          0x00000e69   Thumb Code    36  fatfilesystem.o(.text)
    .text                                    0x000011b4   Section        0  fatfilehandle.o(.text)
    debug_if(int, const char*, ...)          0x000011b5   Thumb Code    36  fatfilehandle.o(.text)
    .text                                    0x00001378   Section        0  diskio.o(.text)
    debug_if(int, const char*, ...)          0x00001379   Thumb Code    36  diskio.o(.text)
    .text                                    0x00001600   Section        0  ccsbcs.o(.text)
    .text                                    0x00001680   Section        0  ff.o(.text)
    mem_cpy(void*, const void*, unsigned)    0x00001681   Thumb Code    26  ff.o(.text)
    mem_set(void*, int, unsigned)            0x0000169b   Thumb Code    20  ff.o(.text)
    mem_cmp(const void*, const void*, unsigned) 0x000016af   Thumb Code    38  ff.o(.text)
    chk_chr(const char*, int)                0x000016d5   Thumb Code    20  ff.o(.text)
    move_window(FATFS*, unsigned long)       0x000016e9   Thumb Code   114  ff.o(.text)
    sync(FATFS*)                             0x0000175b   Thumb Code   202  ff.o(.text)
    remove_chain(FATFS*, unsigned long)      0x00001a59   Thumb Code   104  ff.o(.text)
    create_chain(FATFS*, unsigned long)      0x00001ac1   Thumb Code   202  ff.o(.text)
    dir_sdi(FATFS_DIR*, unsigned short)      0x00001b8b   Thumb Code   156  ff.o(.text)
    dir_next(FATFS_DIR*, int)                0x00001c27   Thumb Code   280  ff.o(.text)
    ld_clust(FATFS*, unsigned char*)         0x00001d3f   Thumb Code    32  ff.o(.text)
    st_clust(unsigned char*, unsigned long)  0x00001d5f   Thumb Code    16  ff.o(.text)
    cmp_lfn(unsigned short*, unsigned char*) 0x00001d6f   Thumb Code   138  ff.o(.text)
    pick_lfn(unsigned short*, unsigned char*) 0x00001df9   Thumb Code   112  ff.o(.text)
    fit_lfn(const unsigned short*, unsigned char*, unsigned char, unsigned char) 0x00001e69   Thumb Code   122  ff.o(.text)
    sum_sfn(const unsigned char*)            0x00001f8b   Thumb Code    32  ff.o(.text)
    dir_find(FATFS_DIR*)                     0x00001fab   Thumb Code   222  ff.o(.text)
    dir_read(FATFS_DIR*)                     0x00002089   Thumb Code   190  ff.o(.text)
    dir_register(FATFS_DIR*)                 0x00002147   Thumb Code   400  ff.o(.text)
    dir_remove(FATFS_DIR*)                   0x000022d7   Thumb Code    96  ff.o(.text)
    create_name(FATFS_DIR*, const char**)    0x00002337   Thumb Code   534  ff.o(.text)
    get_fileinfo(FATFS_DIR*, FILINFO*)       0x0000254d   Thumb Code   296  ff.o(.text)
    follow_path(FATFS_DIR*, const char*)     0x00002675   Thumb Code   146  ff.o(.text)
    check_fs(FATFS*, unsigned long)          0x00002707   Thumb Code   166  ff.o(.text)
    chk_mounted(const char**, FATFS**, unsigned char) 0x000027ad   Thumb Code   904  ff.o(.text)
    validate(void*)                          0x00002b35   Thumb Code    52  ff.o(.text)
    .text                                    0x00004018   Section        0  __2printf.o(.text)
    .text                                    0x00004030   Section        0  __2fprintf.o(.text)
    .text                                    0x00004044   Section        0  __2sprintf.o(.text)
    .text                                    0x00004070   Section        0  _printf_str.o(.text)
    .text                                    0x000040c4   Section        0  _printf_dec.o(.text)
    .text                                    0x00004138   Section        0  __printf_flags_ss_wp.o(.text)
    .text                                    0x000042c0   Section        0  __0sscanf.o(.text)
    .text                                    0x000042fc   Section        0  _scanf_int.o(.text)
    .text                                    0x00004448   Section        0  fflush.o(.text)
    .text                                    0x000044ac   Section        0  fopen.o(.text)
    _freopen_locked                          0x000044ad   Thumb Code     0  fopen.o(.text)
    .text                                    0x00004598   Section        0  fclose.o(.text)
    .text                                    0x000045e4   Section        0  strlen.o(.text)
    .text                                    0x00004622   Section        0  strncmp.o(.text)
    .text                                    0x000046b8   Section      138  rt_memcpy_v6.o(.text)
    .text                                    0x00004742   Section      100  rt_memcpy_w.o(.text)
    .text                                    0x000047a6   Section      122  rt_memmove_w.o(.text)
    .text                                    0x00004820   Section       78  rt_memclr_w.o(.text)
    .text                                    0x00004870   Section      128  strcmpv7m.o(.text)
    .text                                    0x000048f0   Section        0  localtime.o(.text)
    .text                                    0x000048fc   Section        0  mktime.o(.text)
    _tm_carry                                0x000048fd   Thumb Code    54  mktime.o(.text)
    .text                                    0x00004aa0   Section        0  init_aeabi.o(.text)
    .text                                    0x00004ac4   Section        8  rt_ddtor_pointer_addr.o(.text)
    .text                                    0x00004acc   Section        0  h1_alloc.o(.text)
    .text                                    0x00004b2a   Section        0  h1_free.o(.text)
    .text                                    0x00004b78   Section        0  _printf_pad.o(.text)
    .text                                    0x00004bc6   Section        0  _printf_truncate.o(.text)
    .text                                    0x00004bea   Section        0  _printf_intcommon.o(.text)
    .text                                    0x00004c9c   Section        0  _printf_charcount.o(.text)
    .text                                    0x00004cc4   Section        0  _printf_fp_dec.o(.text)
    _fp_digits                               0x00004cc7   Thumb Code   428  _printf_fp_dec.o(.text)
    .text                                    0x000050dc   Section        0  _printf_char_common.o(.text)
    _printf_input_char                       0x000050dd   Thumb Code    10  _printf_char_common.o(.text)
    .text                                    0x0000510c   Section        0  _sputc.o(.text)
    .text                                    0x00005116   Section        0  _printf_char.o(.text)
    .text                                    0x00005144   Section        0  _printf_char_file.o(.text)
    .text                                    0x00005168   Section        0  _printf_wctomb.o(.text)
    .text                                    0x00005224   Section        0  _printf_longlong_dec.o(.text)
    .text                                    0x0000529c   Section        0  _printf_oct_int_ll.o(.text)
    _printf_longlong_oct_internal            0x0000529d   Thumb Code     0  _printf_oct_int_ll.o(.text)
    .text                                    0x0000530c   Section        0  _printf_hex_int_ll_ptr.o(.text)
    _printf_hex_common                       0x0000530d   Thumb Code     0  _printf_hex_int_ll_ptr.o(.text)
    .text                                    0x000053a0   Section        0  _chval.o(.text)
    .text                                    0x000053bc   Section        0  scanf_char.o(.text)
    _scanf_char_input                        0x000053bd   Thumb Code    12  scanf_char.o(.text)
    .text                                    0x000053e8   Section        0  _sgetc.o(.text)
    .text                                    0x00005428   Section        0  fseek.o(.text)
    .text                                    0x00005520   Section        0  stdio.o(.text)
    .text                                    0x00005610   Section        0  initio.o(.text)
    .text                                    0x00005748   Section        0  defsig_pvfn_outer.o(.text)
    .text                                    0x00005758   Section        0  localtime_internal.o(.text)
    .text                                    0x000057fc   Section        0  arm_newhandler_noexceptions.o(.text)
    .text                                    0x00005800   Section        8  rt_heap_descriptor.o(.text)
    .text                                    0x00005808   Section        8  rt_locale.o(.text)
    .text                                    0x00005810   Section        0  hguard.o(.text)
    .text                                    0x00005814   Section        0  init_alloc.o(.text)
    .text                                    0x0000589e   Section        0  h1_init.o(.text)
    .text                                    0x000058ac   Section      138  lludiv10.o(.text)
    .text                                    0x00005936   Section        0  isspace.o(.text)
    .text                                    0x00005948   Section        0  _printf_fp_hex.o(.text)
    .text                                    0x00005c40   Section        0  _printf_fp_infnan.o(.text)
    .text                                    0x00005cc0   Section        0  _printf_wchar.o(.text)
    .text                                    0x00005cec   Section        0  _scanf.o(.text)
    .text                                    0x00006058   Section        0  bigflt0.o(.text)
    .text                                    0x00006130   Section        0  ferror.o(.text)
    .text                                    0x00006138   Section        0  ftell.o(.text)
    .text                                    0x0000617a   Section        0  setvbuf.o(.text)
    .text                                    0x000061c0   Section        0  _wcrtomb.o(.text)
    .text                                    0x00006200   Section        0  defsig_exit.o(.text)
    .text                                    0x0000620a   Section        0  defsig_rtred_outer.o(.text)
    .text                                    0x00006218   Section        0  defsig_pvfn_inner.o(.text)
    .text                                    0x00006248   Section        0  arm_exceptions_terminate.o(.text)
    .text                                    0x00006264   Section        0  sys_exit.o(.text)
    .text                                    0x00006270   Section       16  rt_ctype_table.o(.text)
    .text                                    0x00006280   Section        8  rt_errno_addr.o(.text)
    .text                                    0x00006288   Section        0  h1_extend.o(.text)
    .text                                    0x000062bc   Section        0  flsbuf.o(.text)
    .text                                    0x00006492   Section        0  abort.o(.text)
    .text                                    0x000064a2   Section        0  defsig_general.o(.text)
    .text                                    0x000064d4   Section        0  defsig_rtred_inner.o(.text)
    .text                                    0x00006508   Section        0  defsig_rtmem_outer.o(.text)
    .text                                    0x00006518   Section        0  heapauxa.o(.text)
    .text                                    0x00006568   Section        0  arm_exceptions_globs.o(.text)
    __default_terminate_handler()            0x00006569   Thumb Code     6  arm_exceptions_globs.o(.text)
    .text                                    0x000065b8   Section        0  sys_wrch.o(.text)
    .text                                    0x000065c6   Section        2  use_no_semi.o(.text)
    .text                                    0x000065c8   Section        8  rt_eh_globals_addr.o(.text)
    .text                                    0x000065c8   Section        0  indicate_semi.o(.text)
    .text                                    0x000065d0   Section        0  defsig_abrt_outer.o(.text)
    .text                                    0x000065e0   Section        0  defsig_rtmem_inner.o(.text)
    .text                                    0x00006630   Section        0  arm_exceptions_mem.o(.text)
    .text                                    0x0000666c   Section        0  defsig_abrt_inner.o(.text)
    CL$$btod_d2e                             0x0000669c   Section       62  btod.o(CL$$btod_d2e)
    CL$$btod_d2e_denorm_low                  0x000066da   Section       70  btod.o(CL$$btod_d2e_denorm_low)
    CL$$btod_d2e_norm_op1                    0x00006720   Section       96  btod.o(CL$$btod_d2e_norm_op1)
    CL$$btod_div_common                      0x00006780   Section      824  btod.o(CL$$btod_div_common)
    CL$$btod_e2e                             0x00006ab8   Section      198  btod.o(CL$$btod_e2e)
    CL$$btod_ediv                            0x00006b7e   Section       40  btod.o(CL$$btod_ediv)
    CL$$btod_emul                            0x00006ba6   Section       40  btod.o(CL$$btod_emul)
    CL$$btod_mult_common                     0x00006bce   Section      580  btod.o(CL$$btod_mult_common)
    i.$Sub$$main                             0x00006e12   Section        0  retarget.o(i.$Sub$$main)
    i.NVIC_SetVector                         0x00006e24   Section        0  cmsis_nvic.o(i.NVIC_SetVector)
    i.SystemCoreClockUpdate                  0x00006e8c   Section        0  system_LPC407x_8x_177x_8x.o(i.SystemCoreClockUpdate)
    i.SystemInit                             0x00007090   Section        0  system_LPC407x_8x_177x_8x.o(i.SystemInit)
    i._ZN12FATDirHandleD0Ev                  0x00007174   Section        0  fatdirhandle.o(i._ZN12FATDirHandleD0Ev)
    i._ZN12FATDirHandleD1Ev                  0x00007186   Section        0  fatdirhandle.o(i._ZN12FATDirHandleD1Ev)
    i._ZN12SDFileSystemD1Ev                  0x0000718c   Section        0  main.o(i._ZN12SDFileSystemD1Ev)
    i._ZN13FATFileHandleD0Ev                 0x000071ac   Section        0  fatfilehandle.o(i._ZN13FATFileHandleD0Ev)
    i._ZN13FATFileHandleD1Ev                 0x000071be   Section        0  fatfilehandle.o(i._ZN13FATFileHandleD1Ev)
    i._ZN13FATFileSystem11disk_statusEv      0x000071cc   Section        0  fatfilesystem.o(i._ZN13FATFileSystem11disk_statusEv)
    i._ZN13FATFileSystem15disk_initializeEv  0x000071d2   Section        0  fatfilesystem.o(i._ZN13FATFileSystem15disk_initializeEv)
    i._ZN13FATFileSystem9disk_syncEv         0x000071d8   Section        0  fatfilesystem.o(i._ZN13FATFileSystem9disk_syncEv)
    i._ZN4mbed10DigitalOut5writeEi           0x000071e0   Section        0  sdfilesystem.o(i._ZN4mbed10DigitalOut5writeEi)
    i._ZN4mbed10DigitalOutaSEi               0x00007268   Section        0  sdfilesystem.o(i._ZN4mbed10DigitalOutaSEi)
    i._ZN4mbed10FileHandle4flenEv            0x0000727a   Section        0  retarget.o(i._ZN4mbed10FileHandle4flenEv)
    i._ZN4mbed10FileHandleD2Ev               0x000072b4   Section        0  retarget.o(i._ZN4mbed10FileHandleD2Ev)
    i._ZN4mbed10TimerEvent3irqEj             0x000072e4   Section        0  TimerEvent.o(i._ZN4mbed10TimerEvent3irqEj)
    i._ZN4mbed10TimerEvent6insertEy          0x000072ea   Section        0  TimerEvent.o(i._ZN4mbed10TimerEvent6insertEy)
    i._ZN4mbed10TimerEvent6removeEv          0x000072f6   Section        0  TimerEvent.o(i._ZN4mbed10TimerEvent6removeEv)
    i._ZN4mbed10TimerEventC2Ev               0x000072fc   Section        0  TimerEvent.o(i._ZN4mbed10TimerEventC2Ev)
    i._ZN4mbed10TimerEventD2Ev               0x00007320   Section        0  TimerEvent.o(i._ZN4mbed10TimerEventD2Ev)
    i._ZN4mbed14FileSystemLike5mkdirEPKci    0x00007338   Section        0  FileSystemLike.o(i._ZN4mbed14FileSystemLike5mkdirEPKci)
    i._ZN4mbed14FileSystemLikeC2EPKc         0x00007340   Section        0  FileSystemLike.o(i._ZN4mbed14FileSystemLikeC2EPKc)
    i._ZN4mbed14FileSystemLikeD2Ev           0x00007354   Section        0  FileSystemLike.o(i._ZN4mbed14FileSystemLikeD2Ev)
    i._ZN4mbed15FunctionPointer4callEv       0x00007358   Section        0  FunctionPointer.o(i._ZN4mbed15FunctionPointer4callEv)
    i._ZN4mbed15FunctionPointer6attachEPFvvE 0x00007370   Section        0  FunctionPointer.o(i._ZN4mbed15FunctionPointer6attachEPFvvE)
    i._ZN4mbed15FunctionPointerC1EPFvvE      0x00007378   Section        0  FunctionPointer.o(i._ZN4mbed15FunctionPointerC1EPFvvE)
    i._ZN4mbed3SPI5writeEi                   0x00007384   Section        0  SPI.o(i._ZN4mbed3SPI5writeEi)
    i._ZN4mbed3SPI9frequencyEi               0x000073b8   Section        0  SPI.o(i._ZN4mbed3SPI9frequencyEi)
    i._ZN4mbed3SPIC1E7PinNameS1_S1_S1_       0x000073e0   Section        0  SPI.o(i._ZN4mbed3SPIC1E7PinNameS1_S1_S1_)
    i._ZN4mbed6Ticker5setupEy                0x00007424   Section        0  Ticker.o(i._ZN4mbed6Ticker5setupEy)
    i._ZN4mbed6Ticker6detachEv               0x0000744c   Section        0  Ticker.o(i._ZN4mbed6Ticker6detachEv)
    i._ZN4mbed6Ticker7handlerEv              0x00007462   Section        0  Ticker.o(i._ZN4mbed6Ticker7handlerEv)
    i._ZN4mbed6TickerD1Ev                    0x00007484   Section        0  Ticker.o(i._ZN4mbed6TickerD1Ev)
    i._ZN4mbed8FileBase11getPathTypeEv       0x000074ac   Section        0  FileBase.o(i._ZN4mbed8FileBase11getPathTypeEv)
    i._ZN4mbed8FileBase6lookupEPKcj          0x000074b0   Section        0  FileBase.o(i._ZN4mbed8FileBase6lookupEPKcj)
    i._ZN4mbed8FileBaseC1EPKcNS_8PathTypeE   0x000074e8   Section        0  FileBase.o(i._ZN4mbed8FileBaseC1EPKcNS_8PathTypeE)
    i._ZN4mbed8FileBaseD1Ev                  0x0000750c   Section        0  FileBase.o(i._ZN4mbed8FileBaseD1Ev)
    i._ZN4mbed8FilePath10fileSystemEv        0x00007544   Section        0  FilePath.o(i._ZN4mbed8FilePath10fileSystemEv)
    i._ZN4mbed8FilePath4fileEv               0x0000755c   Section        0  FilePath.o(i._ZN4mbed8FilePath4fileEv)
    i._ZN4mbed8FilePath6existsEv             0x00007578   Section        0  FilePath.o(i._ZN4mbed8FilePath6existsEv)
    i._ZN4mbed8FilePath6isFileEv             0x00007582   Section        0  FilePath.o(i._ZN4mbed8FilePath6isFileEv)
    i._ZN4mbed8FilePath8fileNameEv           0x0000759a   Section        0  FilePath.o(i._ZN4mbed8FilePath8fileNameEv)
    i._ZN4mbed8FilePathC1EPKc                0x0000759e   Section        0  FilePath.o(i._ZN4mbed8FilePathC1EPKc)
    i._ZdlPv                                 0x000075de   Section        0  delete.o(i._ZdlPv)
    i._Znwj                                  0x000075e8   Section        0  new.o(i._Znwj)
    i.__ARM_fpclassify                       0x00007610   Section        0  fpclassify.o(i.__ARM_fpclassify)
    i.__aeabi_atexit                         0x00007640   Section        0  aeabi_atexit.o(i.__aeabi_atexit)
    i.__cxa_finalize                         0x00007672   Section        0  cxa_finalize.o(i.__cxa_finalize)
    i.__cxa_pure_virtual                     0x000076b4   Section        0  pure_virt.o(i.__cxa_pure_virtual)
    i.__hardfp_floor                         0x000076c0   Section        0  floor.o(i.__hardfp_floor)
    i.__reserved_stack_size                  0x000077d8   Section        0  sys_helper.o(i.__reserved_stack_size)
    i.__user_setup_stackheap                 0x000077dc   Section        0  sys.o(i.__user_setup_stackheap)
    i._is_digit                              0x000077f8   Section        0  __printf_wp.o(i._is_digit)
    i._sys_close                             0x00007808   Section        0  retarget.o(i._sys_close)
    i._sys_flen                              0x00007834   Section        0  retarget.o(i._sys_flen)
    i._sys_istty                             0x0000785c   Section        0  retarget.o(i._sys_istty)
    i._sys_open                              0x00007884   Section        0  retarget.o(i._sys_open)
    i._sys_seek                              0x000079b8   Section        0  retarget.o(i._sys_seek)
    i._sys_write                             0x000079e0   Section        0  retarget.o(i._sys_write)
    i.error                                  0x00007a40   Section        0  error.o(i.error)
    i.exit                                   0x00007a58   Section        0  exit.o(i.exit)
    i.fputc                                  0x00007a78   Section        0  fputc.o(i.fputc)
    i.gpio_dir                               0x00007a94   Section        0  gpio_api.o(i.gpio_dir)
    i.gpio_init                              0x00007ae8   Section        0  gpio_api.o(i.gpio_init)
    i.gpio_init_out                          0x00007b28   Section        0  gpio.o(i.gpio_init_out)
    i.gpio_mode                              0x00007b6c   Section        0  gpio_api.o(i.gpio_mode)
    i.mbed_assert_internal                   0x00007b74   Section        0  assert.o(i.mbed_assert_internal)
    i.mbed_die                               0x00007bc4   Section        0  board.o(i.mbed_die)
    i.mbed_main                              0x00007ccc   Section        0  retarget.o(i.mbed_main)
    i.mbed_sdk_init                          0x00007cce   Section        0  retarget.o(i.mbed_sdk_init)
    i.mkdir                                  0x00007cd0   Section        0  retarget.o(i.mkdir)
    i.pin_function                           0x00007d08   Section        0  pinmap.o(i.pin_function)
    i.pin_mode                               0x00007d48   Section        0  pinmap.o(i.pin_mode)
    i.pinmap_merge                           0x00007d9c   Section        0  pinmap_common.o(i.pinmap_merge)
    i.pinmap_peripheral                      0x00007dd4   Section        0  pinmap_common.o(i.pinmap_peripheral)
    i.pinmap_pinout                          0x00007e30   Section        0  pinmap_common.o(i.pinmap_pinout)
    i.rtc_init                               0x00007e88   Section        0  rtc_api.o(i.rtc_init)
    i.rtc_isenabled                          0x00007eac   Section        0  rtc_api.o(i.rtc_isenabled)
    i.rtc_read                               0x00007ebc   Section        0  rtc_api.o(i.rtc_read)
    i.rtc_write                              0x00007ef0   Section        0  rtc_api.o(i.rtc_write)
    i.serial_baud                            0x00007f34   Section        0  serial_api.o(i.serial_baud)
    i.serial_format                          0x0000803c   Section        0  serial_api.o(i.serial_format)
    i.serial_init                            0x000080dc   Section        0  serial_api.o(i.serial_init)
    i.serial_putc                            0x0000824c   Section        0  serial_api.o(i.serial_putc)
    i.spi_format                             0x0000825c   Section        0  spi_api.o(i.spi_format)
    i.spi_frequency                          0x000082e0   Section        0  spi_api.o(i.spi_frequency)
    i.spi_init                               0x00008388   Section        0  spi_api.o(i.spi_init)
    i.spi_master_write                       0x00008550   Section        0  spi_api.o(i.spi_master_write)
    i.time                                   0x0000856a   Section        0  rtc_time.o(i.time)
    i.us_ticker_clear_interrupt              0x0000858c   Section        0  us_ticker.o(i.us_ticker_clear_interrupt)
    i.us_ticker_disable_interrupt            0x00008598   Section        0  us_ticker.o(i.us_ticker_disable_interrupt)
    i.us_ticker_init                         0x000085a8   Section        0  us_ticker.o(i.us_ticker_init)
    i.us_ticker_insert_event                 0x00008608   Section        0  us_ticker_api.o(i.us_ticker_insert_event)
    i.us_ticker_irq_handler                  0x00008654   Section        0  us_ticker_api.o(i.us_ticker_irq_handler)
    i.us_ticker_read                         0x00008698   Section        0  us_ticker.o(i.us_ticker_read)
    i.us_ticker_remove_event                 0x000086f8   Section        0  us_ticker_api.o(i.us_ticker_remove_event)
    i.us_ticker_set_handler                  0x00008734   Section        0  us_ticker_api.o(i.us_ticker_set_handler)
    i.us_ticker_set_interrupt                0x00008748   Section        0  us_ticker.o(i.us_ticker_set_interrupt)
    i.wait_ms                                0x0000875c   Section        0  wait_api.o(i.wait_ms)
    i.wait_us                                0x00008778   Section        0  wait_api.o(i.wait_us)
    locale$$code                             0x00008790   Section       44  lc_numeric_c.o(locale$$code)
    locale$$code                             0x000087bc   Section       44  lc_ctype_c.o(locale$$code)
    x$fpl$dadd                               0x000087e8   Section      336  daddsub_clz.o(x$fpl$dadd)
    $v0                                      0x000087e8   Number         0  daddsub_clz.o(x$fpl$dadd)
    _dadd1                                   0x000087f9   Thumb Code     0  daddsub_clz.o(x$fpl$dadd)
    x$fpl$dcmpinf                            0x00008938   Section       24  dcmpi.o(x$fpl$dcmpinf)
    $v0                                      0x00008938   Number         0  dcmpi.o(x$fpl$dcmpinf)
    x$fpl$dfix                               0x00008950   Section       94  dfix.o(x$fpl$dfix)
    $v0                                      0x00008950   Number         0  dfix.o(x$fpl$dfix)
    x$fpl$dleqf                              0x000089b0   Section      120  dleqf.o(x$fpl$dleqf)
    $v0                                      0x000089b0   Number         0  dleqf.o(x$fpl$dleqf)
    x$fpl$dnaninf                            0x00008a28   Section      156  dnaninf.o(x$fpl$dnaninf)
    $v0                                      0x00008a28   Number         0  dnaninf.o(x$fpl$dnaninf)
    x$fpl$dretinf                            0x00008ac4   Section       12  dretinf.o(x$fpl$dretinf)
    $v0                                      0x00008ac4   Number         0  dretinf.o(x$fpl$dretinf)
    x$fpl$drleqf                             0x00008ad0   Section      108  drleqf.o(x$fpl$drleqf)
    $v0                                      0x00008ad0   Number         0  drleqf.o(x$fpl$drleqf)
    x$fpl$drsb                               0x00008b3c   Section       22  daddsub_clz.o(x$fpl$drsb)
    $v0                                      0x00008b3c   Number         0  daddsub_clz.o(x$fpl$drsb)
    x$fpl$dsub                               0x00008b54   Section      468  daddsub_clz.o(x$fpl$dsub)
    $v0                                      0x00008b54   Number         0  daddsub_clz.o(x$fpl$dsub)
    _dsub1                                   0x00008b65   Thumb Code     0  daddsub_clz.o(x$fpl$dsub)
    x$fpl$f2d                                0x00008d28   Section       86  f2d.o(x$fpl$f2d)
    $v0                                      0x00008d28   Number         0  f2d.o(x$fpl$f2d)
    x$fpl$fnaninf                            0x00008d7e   Section      140  fnaninf.o(x$fpl$fnaninf)
    $v0                                      0x00008d7e   Number         0  fnaninf.o(x$fpl$fnaninf)
    x$fpl$fpinit                             0x00008e0a   Section       10  fpinit.o(x$fpl$fpinit)
    $v0                                      0x00008e0a   Number         0  fpinit.o(x$fpl$fpinit)
    x$fpl$printf1                            0x00008e14   Section        4  printf1.o(x$fpl$printf1)
    $v0                                      0x00008e14   Number         0  printf1.o(x$fpl$printf1)
    x$fpl$printf2                            0x00008e18   Section        4  printf2.o(x$fpl$printf2)
    $v0                                      0x00008e18   Number         0  printf2.o(x$fpl$printf2)
    .constdata                               0x00008e1c   Section     1216  ccsbcs.o(.constdata)
    x$fpl$usenofp                            0x00008e1c   Section        0  usenofp.o(x$fpl$usenofp)
    Tbl                                      0x00008e1c   Data         256  ccsbcs.o(.constdata)
    tbl_lower                                0x00008f1c   Data         480  ccsbcs.o(.constdata)
    tbl_upper                                0x000090fc   Data         480  ccsbcs.o(.constdata)
    .constdata                               0x000092dc   Section      186  ff.o(.constdata)
    LfnOfs                                   0x000092dc   Data          13  ff.o(.constdata)
    excvt                                    0x000092e9   Data         128  ff.o(.constdata)
    vst                                      0x0000936a   Data          22  ff.o(.constdata)
    cst                                      0x00009380   Data          22  ff.o(.constdata)
    .constdata                               0x00009398   Section      103  board.o(.constdata)
    .constdata                               0x000093ff   Section       23  retarget.o(.constdata)
    .constdata                               0x00009418   Section      596  serial_api.o(.constdata)
    PinMap_UART_TX                           0x00009418   Data         156  serial_api.o(.constdata)
    PinMap_UART_RX                           0x000094b4   Data         144  serial_api.o(.constdata)
    .constdata                               0x0000966c   Section      103  gpio.o(.constdata)
    .constdata                               0x000096d4   Section      104  gpio_api.o(.constdata)
    .constdata                               0x0000973c   Section       84  pinmap.o(.constdata)
    .constdata                               0x00009790   Section      668  spi_api.o(.constdata)
    PinMap_SPI_SCLK                          0x00009790   Data         120  spi_api.o(.constdata)
    PinMap_SPI_MOSI                          0x00009808   Data         120  spi_api.o(.constdata)
    PinMap_SPI_MISO                          0x00009880   Data         120  spi_api.o(.constdata)
    PinMap_SPI_SSEL                          0x000098f8   Data         120  spi_api.o(.constdata)
    .constdata                               0x00009a2c   Section       17  __printf_flags_ss_wp.o(.constdata)
    maptable                                 0x00009a2c   Data          17  __printf_flags_ss_wp.o(.constdata)
    .constdata                               0x00009a40   Section        8  _printf_wctomb.o(.constdata)
    initial_mbstate                          0x00009a40   Data           8  _printf_wctomb.o(.constdata)
    .constdata                               0x00009a48   Section       40  _printf_hex_int_ll_ptr.o(.constdata)
    uc_hextab                                0x00009a48   Data          20  _printf_hex_int_ll_ptr.o(.constdata)
    lc_hextab                                0x00009a5c   Data          20  _printf_hex_int_ll_ptr.o(.constdata)
    .constdata                               0x00009a70   Section       12  _monlen.o(.constdata)
    .constdata                               0x00009a7c   Section       38  _printf_fp_hex.o(.constdata)
    lc_hextab                                0x00009a7c   Data          19  _printf_fp_hex.o(.constdata)
    uc_hextab                                0x00009a8f   Data          19  _printf_fp_hex.o(.constdata)
    .constdata                               0x00009aa4   Section      148  bigflt0.o(.constdata)
    tenpwrs_x                                0x00009aa4   Data          60  bigflt0.o(.constdata)
    tenpwrs_i                                0x00009ae0   Data          64  bigflt0.o(.constdata)
    .constdata__ZTV12FATDirHandle            0x00009b38   Section       36  fatdirhandle.o(.constdata__ZTV12FATDirHandle)
    .constdata__ZTV12SDFileSystem            0x00009b5c   Section       64  sdfilesystem.o(.constdata__ZTV12SDFileSystem)
    .constdata__ZTV13FATFileHandle           0x00009b9c   Section       44  fatfilehandle.o(.constdata__ZTV13FATFileHandle)
    .constdata__ZTV13FATFileSystem           0x00009bc8   Section       64  fatfilesystem.o(.constdata__ZTV13FATFileSystem)
    .constdata__ZTVN4mbed10FileHandleE       0x00009c08   Section       44  retarget.o(.constdata__ZTVN4mbed10FileHandleE)
    .constdata__ZTVN4mbed10TimerEventE       0x00009c34   Section       20  TimerEvent.o(.constdata__ZTVN4mbed10TimerEventE)
    .constdata__ZTVN4mbed14FileSystemLikeE   0x00009c48   Section       36  FileSystemLike.o(.constdata__ZTVN4mbed14FileSystemLikeE)
    .constdata__ZTVN4mbed3SPIE               0x00009c6c   Section       20  SPI.o(.constdata__ZTVN4mbed3SPIE)
    .constdata__ZTVN4mbed6TickerE            0x00009c80   Section       20  Ticker.o(.constdata__ZTVN4mbed6TickerE)
    .constdata__ZTVN4mbed8FileBaseE          0x00009c94   Section       16  FileBase.o(.constdata__ZTVN4mbed8FileBaseE)
    .constdata__ZTVN4mbed9DirHandleE         0x00009ca4   Section       36  fatdirhandle.o(.constdata__ZTVN4mbed9DirHandleE)
    .conststring                             0x00009cc8   Section      513  main.o(.conststring)
    locale$$data                             0x00009eec   Section       28  lc_numeric_c.o(locale$$data)
    __lcnum_c_name                           0x00009ef0   Data           2  lc_numeric_c.o(locale$$data)
    __lcnum_c_start                          0x00009ef8   Data           0  lc_numeric_c.o(locale$$data)
    __lcnum_c_point                          0x00009f04   Data           0  lc_numeric_c.o(locale$$data)
    __lcnum_c_thousands                      0x00009f06   Data           0  lc_numeric_c.o(locale$$data)
    __lcnum_c_grouping                       0x00009f07   Data           0  lc_numeric_c.o(locale$$data)
    locale$$data                             0x00009f08   Section      272  lc_ctype_c.o(locale$$data)
    __lcnum_c_end                            0x00009f08   Data           0  lc_numeric_c.o(locale$$data)
    __lcctype_c_name                         0x00009f0c   Data           2  lc_ctype_c.o(locale$$data)
    __lcctype_c_start                        0x00009f14   Data           0  lc_ctype_c.o(locale$$data)
    .init_array                              0x0000a018   Section        4  main.o(.init_array)
    __lcctype_c_end                          0x0000a018   Data           0  lc_ctype_c.o(locale$$data)
    .init_array                              0x0000a01c   Section        0  init_aeabi.o(.init_array)
    .data                                    0x100000e8   Section       24  main.o(.data)
    .data                                    0x10000100   Section        4  fatfilesystem.o(.data)
    .data                                    0x10000104   Section        6  ff.o(.data)
    FatFs                                    0x10000104   Data           4  ff.o(.data)
    Fsid                                     0x10000108   Data           2  ff.o(.data)
    .data                                    0x1000010c   Section       16  system_LPC407x_8x_177x_8x.o(.data)
    .data                                    0x1000011c   Section       16  serial_api.o(.data)
    irq_handler                              0x10000120   Data           4  serial_api.o(.data)
    .data                                    0x1000012c   Section        4  SPI.o(.data)
    .data                                    0x10000130   Section        4  us_ticker.o(.data)
    .data                                    0x10000134   Section        4  FileBase.o(.data)
    .data                                    0x10000138   Section        8  us_ticker_api.o(.data)
    head                                     0x10000138   Data           4  us_ticker_api.o(.data)
    event_handler                            0x1000013c   Data           4  us_ticker_api.o(.data)
    .data                                    0x10000140   Section        4  stdio_streams.o(.data)
    .data                                    0x10000144   Section        4  stdio_streams.o(.data)
    .data                                    0x10000148   Section        4  stdio_streams.o(.data)
    .data                                    0x1000014c   Section        4  heapauxa.o(.data)
    __rt_heap_escrow_base                    0x1000014c   Data           4  heapauxa.o(.data)
    .bss                                     0x10000150   Section      704  main.o(.bss)
    .bss                                     0x10000410   Section      512  ff.o(.bss)
    LfnBuf                                   0x10000410   Data         512  ff.o(.bss)
    .bss                                     0x10000610   Section       64  retarget.o(.bss)
    filehandles                              0x10000610   Data          64  retarget.o(.bss)
    .bss                                     0x10000650   Section       84  stdio_streams.o(.bss)
    .bss                                     0x100006a4   Section       84  stdio_streams.o(.bss)
    .bss                                     0x100006f8   Section       84  stdio_streams.o(.bss)
    .bss                                     0x1000074c   Section       44  localtime.o(.bss)
    _tms                                     0x1000074c   Data          44  localtime.o(.bss)
    .bss                                     0x10000778   Section        4  rt_new_handler_addr.o(.bss)
    __rt_new_handler_addr_data               0x10000778   Data           4  rt_new_handler_addr.o(.bss)
    .bss                                     0x1000077c   Section        4  rt_ddtor_pointer_addr.o(.bss)
    __rt_ddtor_pointer_addr_data             0x1000077c   Data           4  rt_ddtor_pointer_addr.o(.bss)
    .bss                                     0x10000780   Section        4  rt_heap_descriptor.o(.bss)
    __rt_heap_descriptor_data                0x10000780   Data           4  rt_heap_descriptor.o(.bss)
    .bss                                     0x10000784   Section       20  rt_locale.o(.bss)
    __rt_locale_data                         0x10000784   Data          20  rt_locale.o(.bss)
    .bss                                     0x10000798   Section        4  rt_errno_addr.o(.bss)
    __aeabi_errno_addr_data                  0x10000798   Data           4  rt_errno_addr.o(.bss)
    .bss                                     0x1000079c   Section        4  rt_eh_globals_addr.o(.bss)
    __rt_eh_globals_addr_data                0x1000079c   Data           4  rt_eh_globals_addr.o(.bss)

    Global Symbols

    Symbol Name                              Value     Ov Type        Size  Object(Section)

    BuildAttributes$$THM_ISAv4$E$P$D$K$B$S$7EM$VFPi3$EXTD16$VFPS$VFMA$PE$A:L22UL41UL21$X:L11$S22US41US21$IEEE1$IW$USESV6$~STKCKD$USESV7$~SHL$OTIME$ROPI$IEEEJ$EBA8$UX$STANDARDLIB$REQ8$PRES8$EABIv2 0x00000000   Number         0  anon$$obj.o ABSOLUTE
    __ARM_use_no_argv                        0x00000000   Number         0  main.o ABSOLUTE
    __Vectors                                0x00000000   Data           4  startup_LPC407x_8x_177x_8x.o(RESET)
    __dso_handle                             0x00000000   Number         0  startup_LPC407x_8x_177x_8x.o(RESET)
    _printf_flags                            0x00000000   Number         0  printf_stubs.o ABSOLUTE
    _printf_return_value                     0x00000000   Number         0  printf_stubs.o ABSOLUTE
    _printf_sizespec                         0x00000000   Number         0  printf_stubs.o ABSOLUTE
    _printf_widthprec                        0x00000000   Number         0  printf_stubs.o ABSOLUTE
    SHT$$ARM_EXIDX$$Base                      - Undefined Reference
    SHT$$ARM_EXIDX$$Limit                     - Undefined Reference
    __ARM::default_unexpected_handler()       - Undefined Weak Reference
    __ARM_exceptions_buffer_required          - Undefined Weak Reference
    __ARM_exceptions_init                     - Undefined Weak Reference
    __aeabi_unwind_cpp_pr1                    - Undefined Weak Reference
    __aeabi_unwind_cpp_pr2                    - Undefined Weak Reference
    __alloca_initialize                       - Undefined Weak Reference
    __cxa_begin_cleanup                       - Undefined Weak Reference
    __cxa_type_match                          - Undefined Weak Reference
    __rt_lib_shutdown                         - Undefined Weak Reference
    __sigvec_lookup                           - Undefined Weak Reference
    __user_heap_extent                        - Undefined Weak Reference
    _atexit_init                              - Undefined Weak Reference
    _clock_init                               - Undefined Weak Reference
    _fp_trap_init                             - Undefined Weak Reference
    _fp_trap_shutdown                         - Undefined Weak Reference
    _get_lc_collate                           - Undefined Weak Reference
    _get_lc_monetary                          - Undefined Weak Reference
    _get_lc_time                              - Undefined Weak Reference
    _getenv_init                              - Undefined Weak Reference
    _handle_redirection                       - Undefined Weak Reference
    _mutex_acquire                            - Undefined Weak Reference
    _mutex_free                               - Undefined Weak Reference
    _mutex_release                            - Undefined Weak Reference
    _printf_mbtowc                            - Undefined Weak Reference
    _printf_wc                                - Undefined Weak Reference
    _rand_init                                - Undefined Weak Reference
    _scanf_longlong                           - Undefined Weak Reference
    _scanf_mbtowc                             - Undefined Weak Reference
    _scanf_real                               - Undefined Weak Reference
    _scanf_string                             - Undefined Weak Reference
    _scanf_wctomb                             - Undefined Weak Reference
    _scanf_wstring                            - Undefined Weak Reference
    _signal_finish                            - Undefined Weak Reference
    _signal_init                              - Undefined Weak Reference
    __main                                   0x000000e5   Thumb Code     8  __main.o(!!!main)
    __scatterload                            0x000000ed   Thumb Code     0  __scatter.o(!!!scatter)
    __scatterload_rt2                        0x000000ed   Thumb Code    44  __scatter.o(!!!scatter)
    __scatterload_rt2_thumb_only             0x000000ed   Thumb Code     0  __scatter.o(!!!scatter)
    __scatterload_null                       0x000000fb   Thumb Code     0  __scatter.o(!!!scatter)
    __scatterload_copy                       0x00000121   Thumb Code    26  __scatter_copy.o(!!handler_copy)
    __scatterload_zeroinit                   0x0000013d   Thumb Code    28  __scatter_zi.o(!!handler_zi)
    _printf_n                                0x00000159   Thumb Code     0  _printf_n.o(.ARM.Collect$$_printf_percent$$00000001)
    _printf_percent                          0x00000159   Thumb Code     0  _printf_percent.o(.ARM.Collect$$_printf_percent$$00000000)
    _printf_p                                0x0000015f   Thumb Code     0  _printf_p.o(.ARM.Collect$$_printf_percent$$00000002)
    _printf_f                                0x00000165   Thumb Code     0  _printf_f.o(.ARM.Collect$$_printf_percent$$00000003)
    _printf_e                                0x0000016b   Thumb Code     0  _printf_e.o(.ARM.Collect$$_printf_percent$$00000004)
    _printf_g                                0x00000171   Thumb Code     0  _printf_g.o(.ARM.Collect$$_printf_percent$$00000005)
    _printf_a                                0x00000177   Thumb Code     0  _printf_a.o(.ARM.Collect$$_printf_percent$$00000006)
    _printf_ll                               0x0000017d   Thumb Code     0  _printf_ll.o(.ARM.Collect$$_printf_percent$$00000007)
    _printf_i                                0x00000187   Thumb Code     0  _printf_i.o(.ARM.Collect$$_printf_percent$$00000008)
    _printf_d                                0x0000018d   Thumb Code     0  _printf_d.o(.ARM.Collect$$_printf_percent$$00000009)
    _printf_u                                0x00000193   Thumb Code     0  _printf_u.o(.ARM.Collect$$_printf_percent$$0000000A)
    _printf_o                                0x00000199   Thumb Code     0  _printf_o.o(.ARM.Collect$$_printf_percent$$0000000B)
    _printf_x                                0x0000019f   Thumb Code     0  _printf_x.o(.ARM.Collect$$_printf_percent$$0000000C)
    _printf_lli                              0x000001a5   Thumb Code     0  _printf_lli.o(.ARM.Collect$$_printf_percent$$0000000D)
    _printf_lld                              0x000001ab   Thumb Code     0  _printf_lld.o(.ARM.Collect$$_printf_percent$$0000000E)
    _printf_llu                              0x000001b1   Thumb Code     0  _printf_llu.o(.ARM.Collect$$_printf_percent$$0000000F)
    _printf_llo                              0x000001b7   Thumb Code     0  _printf_llo.o(.ARM.Collect$$_printf_percent$$00000010)
    _printf_llx                              0x000001bd   Thumb Code     0  _printf_llx.o(.ARM.Collect$$_printf_percent$$00000011)
    _printf_l                                0x000001c3   Thumb Code     0  _printf_l.o(.ARM.Collect$$_printf_percent$$00000012)
    _printf_c                                0x000001cd   Thumb Code     0  _printf_c.o(.ARM.Collect$$_printf_percent$$00000013)
    _printf_s                                0x000001d3   Thumb Code     0  _printf_s.o(.ARM.Collect$$_printf_percent$$00000014)
    _printf_lc                               0x000001d9   Thumb Code     0  _printf_lc.o(.ARM.Collect$$_printf_percent$$00000015)
    _printf_ls                               0x000001df   Thumb Code     0  _printf_ls.o(.ARM.Collect$$_printf_percent$$00000016)
    _printf_percent_end                      0x000001e5   Thumb Code     0  _printf_percent_end.o(.ARM.Collect$$_printf_percent$$00000017)
    __rt_lib_init                            0x000001e9   Thumb Code     0  libinit.o(.ARM.Collect$$libinit$$00000000)
    __rt_lib_init_fp_1                       0x000001eb   Thumb Code     0  libinit2.o(.ARM.Collect$$libinit$$00000001)
    __rt_lib_init_heap_2                     0x000001ef   Thumb Code     0  libinit2.o(.ARM.Collect$$libinit$$00000003)
    __rt_lib_init_heap_1                     0x000001f7   Thumb Code     0  libinit2.o(.ARM.Collect$$libinit$$00000008)
    __rt_lib_init_lc_common                  0x000001f7   Thumb Code     0  libinit2.o(.ARM.Collect$$libinit$$0000000D)
    __rt_lib_init_rand_1                     0x000001f7   Thumb Code     0  libinit2.o(.ARM.Collect$$libinit$$0000000C)
    __rt_lib_init_user_alloc_1               0x000001f7   Thumb Code     0  libinit2.o(.ARM.Collect$$libinit$$0000000A)
    __rt_lib_init_lc_collate_1               0x000001fd   Thumb Code     0  libinit2.o(.ARM.Collect$$libinit$$0000000F)
    __rt_lib_init_lc_ctype_2                 0x000001fd   Thumb Code     0  libinit2.o(.ARM.Collect$$libinit$$00000010)
    __rt_lib_init_lc_ctype_1                 0x00000209   Thumb Code     0  libinit2.o(.ARM.Collect$$libinit$$00000011)
    __rt_lib_init_lc_monetary_1              0x00000209   Thumb Code     0  libinit2.o(.ARM.Collect$$libinit$$00000013)
    __rt_lib_init_lc_numeric_2               0x00000209   Thumb Code     0  libinit2.o(.ARM.Collect$$libinit$$00000014)
    __rt_lib_init_atexit_1                   0x00000213   Thumb Code     0  libinit2.o(.ARM.Collect$$libinit$$00000019)
    __rt_lib_init_clock_1                    0x00000213   Thumb Code     0  libinit2.o(.ARM.Collect$$libinit$$0000001F)
    __rt_lib_init_fp_trap_1                  0x00000213   Thumb Code     0  libinit2.o(.ARM.Collect$$libinit$$0000001D)
    __rt_lib_init_getenv_1                   0x00000213   Thumb Code     0  libinit2.o(.ARM.Collect$$libinit$$00000021)
    __rt_lib_init_lc_numeric_1               0x00000213   Thumb Code     0  libinit2.o(.ARM.Collect$$libinit$$00000015)
    __rt_lib_init_lc_time_1                  0x00000213   Thumb Code     0  libinit2.o(.ARM.Collect$$libinit$$00000017)
    __rt_lib_init_signal_1                   0x00000213   Thumb Code     0  libinit2.o(.ARM.Collect$$libinit$$0000001B)
    __rt_lib_init_stdio_2                    0x00000213   Thumb Code     0  libinit2.o(.ARM.Collect$$libinit$$00000022)
    __rt_lib_init_alloca_1                   0x00000217   Thumb Code     0  libinit2.o(.ARM.Collect$$libinit$$0000002C)
    __rt_lib_init_argv_1                     0x00000217   Thumb Code     0  libinit2.o(.ARM.Collect$$libinit$$0000002A)
    __rt_lib_init_cpp_2                      0x00000217   Thumb Code     0  libinit2.o(.ARM.Collect$$libinit$$0000002F)
    __rt_lib_init_exceptions_1               0x00000217   Thumb Code     0  libinit2.o(.ARM.Collect$$libinit$$0000002E)
    __rt_lib_init_stdio_1                    0x00000217   Thumb Code     0  libinit2.o(.ARM.Collect$$libinit$$00000023)
    __rt_lib_init_cpp_1                      0x0000021b   Thumb Code     0  libinit2.o(.ARM.Collect$$libinit$$00000030)
    __rt_lib_init_return                     0x0000021b   Thumb Code     0  libinit2.o(.ARM.Collect$$libinit$$00000031)
    __rt_lib_shutdown_cpp_1                  0x0000021d   Thumb Code     0  libshutdown2.o(.ARM.Collect$$libshutdown$$00000001)
    __rt_entry                               0x00000223   Thumb Code     0  rtentry.o(.ARM.Collect$$rtentry$$00000000)
    __rt_entry_presh_1                       0x00000223   Thumb Code     0  rtentry2.o(.ARM.Collect$$rtentry$$00000002)
    __rt_entry_sh                            0x00000223   Thumb Code     0  rtentry4.o(.ARM.Collect$$rtentry$$00000004)
    __rt_lib_shutdown_stdio_2                0x00000223   Thumb Code     0  libshutdown2.o(.ARM.Collect$$libshutdown$$00000003)
    __rt_entry_li                            0x00000229   Thumb Code     0  rtentry2.o(.ARM.Collect$$rtentry$$0000000A)
    __rt_entry_postsh_1                      0x00000229   Thumb Code     0  rtentry2.o(.ARM.Collect$$rtentry$$00000009)
    __rt_entry_main                          0x0000022d   Thumb Code     0  rtentry2.o(.ARM.Collect$$rtentry$$0000000D)
    __rt_entry_postli_1                      0x0000022d   Thumb Code     0  rtentry2.o(.ARM.Collect$$rtentry$$0000000C)
    FATDirHandle::FATDirHandle(const FATFS_DIR&) 0x00000235   Thumb Code    26  fatdirhandle.o(.text)
    FATDirHandle::FATDirHandle__sub_object(const FATFS_DIR&) 0x00000235   Thumb Code     0  fatdirhandle.o(.text)
    _maybe_terminate_alloc                   0x00000235   Thumb Code     0  maybetermalloc1.o(.emb_text)
    FATDirHandle::closedir()                 0x0000024f   Thumb Code    18  fatdirhandle.o(.text)
    FATDirHandle::readdir()                  0x00000261   Thumb Code    68  fatdirhandle.o(.text)
    FATDirHandle::rewinddir()                0x000002a5   Thumb Code     6  fatdirhandle.o(.text)
    FATDirHandle::telldir()                  0x000002ab   Thumb Code     6  fatdirhandle.o(.text)
    FATDirHandle::seekdir(long)              0x000002b1   Thumb Code     4  fatdirhandle.o(.text)
    Reset_Handler                            0x000002bd   Thumb Code     8  startup_LPC407x_8x_177x_8x.o(.text)
    NMI_Handler                              0x000002c5   Thumb Code     2  startup_LPC407x_8x_177x_8x.o(.text)
    HardFault_Handler                        0x000002c7   Thumb Code     2  startup_LPC407x_8x_177x_8x.o(.text)
    MemManage_Handler                        0x000002c9   Thumb Code     2  startup_LPC407x_8x_177x_8x.o(.text)
    BusFault_Handler                         0x000002cb   Thumb Code     2  startup_LPC407x_8x_177x_8x.o(.text)
    UsageFault_Handler                       0x000002cd   Thumb Code     2  startup_LPC407x_8x_177x_8x.o(.text)
    SVC_Handler                              0x000002cf   Thumb Code     2  startup_LPC407x_8x_177x_8x.o(.text)
    DebugMon_Handler                         0x000002d1   Thumb Code     2  startup_LPC407x_8x_177x_8x.o(.text)
    PendSV_Handler                           0x000002d3   Thumb Code     2  startup_LPC407x_8x_177x_8x.o(.text)
    SysTick_Handler                          0x000002d5   Thumb Code     2  startup_LPC407x_8x_177x_8x.o(.text)
    ADC_IRQHandler                           0x000002d7   Thumb Code     0  startup_LPC407x_8x_177x_8x.o(.text)
    BOD_IRQHandler                           0x000002d7   Thumb Code     0  startup_LPC407x_8x_177x_8x.o(.text)
    CANActivity_IRQHandler                   0x000002d7   Thumb Code     0  startup_LPC407x_8x_177x_8x.o(.text)
    CAN_IRQHandler                           0x000002d7   Thumb Code     0  startup_LPC407x_8x_177x_8x.o(.text)
    DMA_IRQHandler                           0x000002d7   Thumb Code     0  startup_LPC407x_8x_177x_8x.o(.text)
    EEPROM_IRQHandler                        0x000002d7   Thumb Code     0  startup_LPC407x_8x_177x_8x.o(.text)
    EINT0_IRQHandler                         0x000002d7   Thumb Code     0  startup_LPC407x_8x_177x_8x.o(.text)
    EINT1_IRQHandler                         0x000002d7   Thumb Code     0  startup_LPC407x_8x_177x_8x.o(.text)
    EINT2_IRQHandler                         0x000002d7   Thumb Code     0  startup_LPC407x_8x_177x_8x.o(.text)
    EINT3_IRQHandler                         0x000002d7   Thumb Code     0  startup_LPC407x_8x_177x_8x.o(.text)
    ENET_IRQHandler                          0x000002d7   Thumb Code     0  startup_LPC407x_8x_177x_8x.o(.text)
    GPIO_IRQHandler                          0x000002d7   Thumb Code     0  startup_LPC407x_8x_177x_8x.o(.text)
    I2C0_IRQHandler                          0x000002d7   Thumb Code     0  startup_LPC407x_8x_177x_8x.o(.text)
    I2C1_IRQHandler                          0x000002d7   Thumb Code     0  startup_LPC407x_8x_177x_8x.o(.text)
    I2C2_IRQHandler                          0x000002d7   Thumb Code     0  startup_LPC407x_8x_177x_8x.o(.text)
    I2S_IRQHandler                           0x000002d7   Thumb Code     0  startup_LPC407x_8x_177x_8x.o(.text)
    LCD_IRQHandler                           0x000002d7   Thumb Code     0  startup_LPC407x_8x_177x_8x.o(.text)
    MCI_IRQHandler                           0x000002d7   Thumb Code     0  startup_LPC407x_8x_177x_8x.o(.text)
    MCPWM_IRQHandler                         0x000002d7   Thumb Code     0  startup_LPC407x_8x_177x_8x.o(.text)
    PLL0_IRQHandler                          0x000002d7   Thumb Code     0  startup_LPC407x_8x_177x_8x.o(.text)
    PLL1_IRQHandler                          0x000002d7   Thumb Code     0  startup_LPC407x_8x_177x_8x.o(.text)
    PWM0_IRQHandler                          0x000002d7   Thumb Code     0  startup_LPC407x_8x_177x_8x.o(.text)
    PWM1_IRQHandler                          0x000002d7   Thumb Code     0  startup_LPC407x_8x_177x_8x.o(.text)
    QEI_IRQHandler                           0x000002d7   Thumb Code     0  startup_LPC407x_8x_177x_8x.o(.text)
    RTC_IRQHandler                           0x000002d7   Thumb Code     0  startup_LPC407x_8x_177x_8x.o(.text)
    SSP0_IRQHandler                          0x000002d7   Thumb Code     0  startup_LPC407x_8x_177x_8x.o(.text)
    SSP1_IRQHandler                          0x000002d7   Thumb Code     0  startup_LPC407x_8x_177x_8x.o(.text)
    SSP2_IRQHandler                          0x000002d7   Thumb Code     0  startup_LPC407x_8x_177x_8x.o(.text)
    TIMER0_IRQHandler                        0x000002d7   Thumb Code     0  startup_LPC407x_8x_177x_8x.o(.text)
    TIMER1_IRQHandler                        0x000002d7   Thumb Code     0  startup_LPC407x_8x_177x_8x.o(.text)
    TIMER2_IRQHandler                        0x000002d7   Thumb Code     0  startup_LPC407x_8x_177x_8x.o(.text)
    TIMER3_IRQHandler                        0x000002d7   Thumb Code     0  startup_LPC407x_8x_177x_8x.o(.text)
    UART0_IRQHandler                         0x000002d7   Thumb Code     0  startup_LPC407x_8x_177x_8x.o(.text)
    UART1_IRQHandler                         0x000002d7   Thumb Code     0  startup_LPC407x_8x_177x_8x.o(.text)
    UART2_IRQHandler                         0x000002d7   Thumb Code     0  startup_LPC407x_8x_177x_8x.o(.text)
    UART3_IRQHandler                         0x000002d7   Thumb Code     0  startup_LPC407x_8x_177x_8x.o(.text)
    UART4_IRQHandler                         0x000002d7   Thumb Code     0  startup_LPC407x_8x_177x_8x.o(.text)
    USBActivity_IRQHandler                   0x000002d7   Thumb Code     0  startup_LPC407x_8x_177x_8x.o(.text)
    USB_IRQHandler                           0x000002d7   Thumb Code     0  startup_LPC407x_8x_177x_8x.o(.text)
    WDT_IRQHandler                           0x000002d7   Thumb Code     0  startup_LPC407x_8x_177x_8x.o(.text)
    vfprintf                                 0x000002e1   Thumb Code    10  vfprintf.o(.text)
    __c89vfprintf                            0x000002eb   Thumb Code    10  c89vfprintf.o(.text)
    __rt_new_handler_addr                    0x000002f5   Thumb Code     8  rt_new_handler_addr.o(.text)
    time()                                   0x00000301   Thumb Code    46  main.o(.text)
    $Super$$main                             0x0000032f   Thumb Code   170  main.o(.text)
    SDFileSystem::SDFileSystem(PinName, PinName, PinName, PinName, const char*) 0x00000537   Thumb Code    96  sdfilesystem.o(.text)
    SDFileSystem::SDFileSystem__sub_object(PinName, PinName, PinName, PinName, const char*) 0x00000537   Thumb Code     0  sdfilesystem.o(.text)
    SDFileSystem::_cmd(int, int)             0x00000597   Thumb Code   166  sdfilesystem.o(.text)
    SDFileSystem::_read(unsigned char*, unsigned) 0x0000063d   Thumb Code   104  sdfilesystem.o(.text)
    SDFileSystem::_cmdx(int, int)            0x000006a5   Thumb Code   146  sdfilesystem.o(.text)
    SDFileSystem::_sd_sectors()              0x00000737   Thumb Code   270  sdfilesystem.o(.text)
    SDFileSystem::initialise_card_v1()       0x00000845   Thumb Code    70  sdfilesystem.o(.text)
    SDFileSystem::_cmd58()                   0x0000088b   Thumb Code   506  sdfilesystem.o(.text)
    SDFileSystem::initialise_card_v2()       0x00000a85   Thumb Code    88  sdfilesystem.o(.text)
    SDFileSystem::_cmd8()                    0x00000add   Thumb Code   190  sdfilesystem.o(.text)
    SDFileSystem::initialise_card()          0x00000b9b   Thumb Code   110  sdfilesystem.o(.text)
    SDFileSystem::disk_initialize()          0x00000c09   Thumb Code    72  sdfilesystem.o(.text)
    SDFileSystem::disk_status()              0x00000c51   Thumb Code     6  sdfilesystem.o(.text)
    SDFileSystem::disk_read(unsigned char*, unsigned long long) 0x00000c57   Thumb Code    52  sdfilesystem.o(.text)
    SDFileSystem::_write(const unsigned char*, unsigned) 0x00000c8b   Thumb Code   154  sdfilesystem.o(.text)
    SDFileSystem::disk_write(const unsigned char*, unsigned long long) 0x00000d25   Thumb Code    52  sdfilesystem.o(.text)
    SDFileSystem::disk_sync()                0x00000d59   Thumb Code     6  sdfilesystem.o(.text)
    SDFileSystem::disk_sectors()             0x00000d5f   Thumb Code    10  sdfilesystem.o(.text)
    get_fattime                              0x00000e8d   Thumb Code    60  fatfilesystem.o(.text)
    FATFileSystem::FATFileSystem__sub_object(const char*) 0x00000ec9   Thumb Code    98  fatfilesystem.o(.text)
    FATFileSystem::~FATFileSystem()          0x00000f2b   Thumb Code     0  fatfilesystem.o(.text)
    FATFileSystem::~FATFileSystem__sub_object() 0x00000f2b   Thumb Code    56  fatfilesystem.o(.text)
    FATFileSystem::~FATFileSystem__deallocating() 0x00000f63   Thumb Code    18  fatfilesystem.o(.text)
    FATFileSystem::open(const char*, int)    0x00000f75   Thumb Code   178  fatfilesystem.o(.text)
    FATFileSystem::remove(const char*)       0x00001027   Thumb Code    36  fatfilesystem.o(.text)
    FATFileSystem::format()                  0x0000104b   Thumb Code    42  fatfilesystem.o(.text)
    FATFileSystem::opendir(const char*)      0x00001075   Thumb Code    46  fatfilesystem.o(.text)
    FATFileSystem::mkdir(const char*, int)   0x000010a3   Thumb Code    32  fatfilesystem.o(.text)
    FATFileHandle::FATFileHandle(FIL)        0x000011d9   Thumb Code    32  fatfilehandle.o(.text)
    FATFileHandle::FATFileHandle__sub_object(FIL) 0x000011d9   Thumb Code     0  fatfilehandle.o(.text)
    FATFileHandle::close()                   0x000011f9   Thumb Code    26  fatfilehandle.o(.text)
    FATFileHandle::write(const void*, unsigned) 0x00001213   Thumb Code    44  fatfilehandle.o(.text)
    FATFileHandle::read(void*, unsigned)     0x0000123f   Thumb Code    54  fatfilehandle.o(.text)
    FATFileHandle::isatty()                  0x00001275   Thumb Code     6  fatfilehandle.o(.text)
    FATFileHandle::lseek(long, int)          0x0000127b   Thumb Code    72  fatfilehandle.o(.text)
    FATFileHandle::fsync()                   0x000012c3   Thumb Code    34  fatfilehandle.o(.text)
    FATFileHandle::flen()                    0x000012e5   Thumb Code     6  fatfilehandle.o(.text)
    disk_initialize(unsigned char)           0x0000139d   Thumb Code    34  diskio.o(.text)
    disk_status(unsigned char)               0x000013bf   Thumb Code    34  diskio.o(.text)
    disk_read(unsigned char, unsigned char*, unsigned long, unsigned char) 0x000013e1   Thumb Code    96  diskio.o(.text)
    disk_write(unsigned char, const unsigned char*, unsigned long, unsigned char) 0x00001441   Thumb Code    96  diskio.o(.text)
    disk_ioctl(unsigned char, unsigned char, void*) 0x000014a1   Thumb Code   126  diskio.o(.text)
    ff_convert                               0x00001601   Thumb Code    70  ccsbcs.o(.text)
    ff_wtoupper                              0x00001647   Thumb Code    46  ccsbcs.o(.text)
    clust2sect(FATFS*, unsigned long)        0x00001825   Thumb Code    26  ff.o(.text)
    get_fat(FATFS*, unsigned long)           0x0000183f   Thumb Code   228  ff.o(.text)
    put_fat(FATFS*, unsigned long, unsigned long) 0x00001923   Thumb Code   310  ff.o(.text)
    gen_numname(unsigned char*, const unsigned char*, const unsigned short*, unsigned short) 0x00001ee3   Thumb Code   168  ff.o(.text)
    f_mount                                  0x00002b69   Thumb Code    38  ff.o(.text)
    f_open                                   0x00002b8f   Thumb Code   374  ff.o(.text)
    f_read                                   0x00002d05   Thumb Code   458  ff.o(.text)
    f_write                                  0x00002ecf   Thumb Code   524  ff.o(.text)
    f_sync                                   0x000030db   Thumb Code   176  ff.o(.text)
    f_close                                  0x0000318b   Thumb Code    22  ff.o(.text)
    f_lseek                                  0x000031a1   Thumb Code   430  ff.o(.text)
    f_opendir                                0x0000334f   Thumb Code   116  ff.o(.text)
    f_readdir                                0x000033c3   Thumb Code    90  ff.o(.text)
    f_stat                                   0x0000341d   Thumb Code    62  ff.o(.text)
    f_getfree                                0x0000345b   Thumb Code   260  ff.o(.text)
    f_truncate                               0x0000355f   Thumb Code   160  ff.o(.text)
    f_unlink                                 0x000035ff   Thumb Code   172  ff.o(.text)
    f_mkdir                                  0x000036ab   Thumb Code   364  ff.o(.text)
    f_chmod                                  0x00003817   Thumb Code    88  ff.o(.text)
    f_utime                                  0x0000386f   Thumb Code    90  ff.o(.text)
    f_rename                                 0x000038c9   Thumb Code   280  ff.o(.text)
    f_mkfs                                   0x000039e1   Thumb Code  1536  ff.o(.text)
    __2printf                                0x00004019   Thumb Code    20  __2printf.o(.text)
    __2fprintf                               0x00004031   Thumb Code    20  __2fprintf.o(.text)
    __2sprintf                               0x00004045   Thumb Code    38  __2sprintf.o(.text)
    _printf_str                              0x00004071   Thumb Code    82  _printf_str.o(.text)
    _printf_int_dec                          0x000040c5   Thumb Code   100  _printf_dec.o(.text)
    __printf                                 0x00004139   Thumb Code   388  __printf_flags_ss_wp.o(.text)
    __0sscanf                                0x000042c1   Thumb Code    52  __0sscanf.o(.text)
    _scanf_int                               0x000042fd   Thumb Code   332  _scanf_int.o(.text)
    _do_fflush                               0x00004449   Thumb Code    54  fflush.o(.text)
    fflush                                   0x0000447f   Thumb Code    42  fflush.o(.text)
    freopen                                  0x000044ad   Thumb Code   158  fopen.o(.text)
    fopen                                    0x0000454b   Thumb Code    74  fopen.o(.text)
    _fclose_internal                         0x00004599   Thumb Code    76  fclose.o(.text)
    fclose                                   0x00004599   Thumb Code     0  fclose.o(.text)
    strlen                                   0x000045e5   Thumb Code    62  strlen.o(.text)
    strncmp                                  0x00004623   Thumb Code   150  strncmp.o(.text)
    __aeabi_memcpy                           0x000046b9   Thumb Code     0  rt_memcpy_v6.o(.text)
    __rt_memcpy                              0x000046b9   Thumb Code   138  rt_memcpy_v6.o(.text)
    _memcpy_lastbytes                        0x0000471f   Thumb Code     0  rt_memcpy_v6.o(.text)
    __aeabi_memcpy4                          0x00004743   Thumb Code     0  rt_memcpy_w.o(.text)
    __aeabi_memcpy8                          0x00004743   Thumb Code     0  rt_memcpy_w.o(.text)
    __rt_memcpy_w                            0x00004743   Thumb Code   100  rt_memcpy_w.o(.text)
    _memcpy_lastbytes_aligned                0x0000478b   Thumb Code     0  rt_memcpy_w.o(.text)
    __aeabi_memmove4                         0x000047a7   Thumb Code     0  rt_memmove_w.o(.text)
    __aeabi_memmove8                         0x000047a7   Thumb Code     0  rt_memmove_w.o(.text)
    __rt_memmove_w                           0x000047a7   Thumb Code   122  rt_memmove_w.o(.text)
    __memmove_aligned                        0x000047cd   Thumb Code     0  rt_memmove_w.o(.text)
    __memmove_lastfew_aligned                0x00004805   Thumb Code     0  rt_memmove_w.o(.text)
    __aeabi_memclr4                          0x00004821   Thumb Code     0  rt_memclr_w.o(.text)
    __aeabi_memclr8                          0x00004821   Thumb Code     0  rt_memclr_w.o(.text)
    __rt_memclr_w                            0x00004821   Thumb Code    78  rt_memclr_w.o(.text)
    _memset_w                                0x00004825   Thumb Code     0  rt_memclr_w.o(.text)
    strcmp                                   0x00004871   Thumb Code   128  strcmpv7m.o(.text)
    localtime                                0x000048f1   Thumb Code     6  localtime.o(.text)
    mktime                                   0x00004933   Thumb Code   356  mktime.o(.text)
    __cpp_initialize__aeabi_                 0x00004aa1   Thumb Code    26  init_aeabi.o(.text)
    __rt_ddtor_pointer_addr                  0x00004ac5   Thumb Code     8  rt_ddtor_pointer_addr.o(.text)
    malloc                                   0x00004acd   Thumb Code    94  h1_alloc.o(.text)
    free                                     0x00004b2b   Thumb Code    78  h1_free.o(.text)
    _printf_pre_padding                      0x00004b79   Thumb Code    44  _printf_pad.o(.text)
    _printf_post_padding                     0x00004ba5   Thumb Code    34  _printf_pad.o(.text)
    _printf_truncate_signed                  0x00004bc7   Thumb Code    18  _printf_truncate.o(.text)
    _printf_truncate_unsigned                0x00004bd9   Thumb Code    18  _printf_truncate.o(.text)
    _printf_int_common                       0x00004beb   Thumb Code   178  _printf_intcommon.o(.text)
    _printf_charcount                        0x00004c9d   Thumb Code    40  _printf_charcount.o(.text)
    __lib_sel_fp_printf                      0x00004cc5   Thumb Code     2  _printf_fp_dec.o(.text)
    _printf_fp_dec_real                      0x00004e73   Thumb Code   616  _printf_fp_dec.o(.text)
    _printf_char_common                      0x000050e7   Thumb Code    32  _printf_char_common.o(.text)
    _sputc                                   0x0000510d   Thumb Code    10  _sputc.o(.text)
    _printf_cs_common                        0x00005117   Thumb Code    20  _printf_char.o(.text)
    _printf_char                             0x0000512b   Thumb Code    16  _printf_char.o(.text)
    _printf_string                           0x0000513b   Thumb Code     8  _printf_char.o(.text)
    _printf_char_file                        0x00005145   Thumb Code    32  _printf_char_file.o(.text)
    _printf_wctomb                           0x00005169   Thumb Code   182  _printf_wctomb.o(.text)
    _printf_longlong_dec                     0x00005225   Thumb Code   104  _printf_longlong_dec.o(.text)
    _printf_longlong_oct                     0x0000529d   Thumb Code    68  _printf_oct_int_ll.o(.text)
    _printf_int_oct                          0x000052e1   Thumb Code    24  _printf_oct_int_ll.o(.text)
    _printf_ll_oct                           0x000052f9   Thumb Code    12  _printf_oct_int_ll.o(.text)
    _printf_longlong_hex                     0x0000530d   Thumb Code    86  _printf_hex_int_ll_ptr.o(.text)
    _printf_int_hex                          0x00005363   Thumb Code    28  _printf_hex_int_ll_ptr.o(.text)
    _printf_ll_hex                           0x0000537f   Thumb Code    12  _printf_hex_int_ll_ptr.o(.text)
    _printf_hex_ptr                          0x0000538b   Thumb Code    18  _printf_hex_int_ll_ptr.o(.text)
    _chval                                   0x000053a1   Thumb Code    28  _chval.o(.text)
    __vfscanf_char                           0x000053c9   Thumb Code    24  scanf_char.o(.text)
    _sgetc                                   0x000053e9   Thumb Code    30  _sgetc.o(.text)
    _sbackspace                              0x00005407   Thumb Code    34  _sgetc.o(.text)
    _fseek                                   0x00005429   Thumb Code   242  fseek.o(.text)
    fseek                                    0x00005429   Thumb Code     0  fseek.o(.text)
    _seterr                                  0x00005521   Thumb Code    20  stdio.o(.text)
    _writebuf                                0x00005535   Thumb Code    84  stdio.o(.text)
    _fflush                                  0x00005589   Thumb Code    70  stdio.o(.text)
    _deferredlazyseek                        0x000055cf   Thumb Code    60  stdio.o(.text)
    _initio                                  0x00005611   Thumb Code   210  initio.o(.text)
    _terminateio                             0x000056e3   Thumb Code    56  initio.o(.text)
    __rt_SIGPVFN                             0x00005749   Thumb Code    14  defsig_pvfn_outer.o(.text)
    _localtime_r                             0x00005759   Thumb Code   158  localtime_internal.o(.text)
    _n$localtime_r                           0x00005759   Thumb Code     0  localtime_internal.o(.text)
    __default_new_handler()                  0x000057fd   Thumb Code     4  arm_newhandler_noexceptions.o(.text)
    __rt_heap_descriptor                     0x00005801   Thumb Code     8  rt_heap_descriptor.o(.text)
    __rt_locale                              0x00005809   Thumb Code     8  rt_locale.o(.text)
    __use_no_heap                            0x00005811   Thumb Code     2  hguard.o(.text)
    __heap$guard                             0x00005813   Thumb Code     2  hguard.o(.text)
    _terminate_user_alloc                    0x00005815   Thumb Code     2  init_alloc.o(.text)
    _init_user_alloc                         0x00005817   Thumb Code     2  init_alloc.o(.text)
    __Heap_Full                              0x00005819   Thumb Code    34  init_alloc.o(.text)
    __Heap_Broken                            0x0000583b   Thumb Code     6  init_alloc.o(.text)
    _init_alloc                              0x00005841   Thumb Code    94  init_alloc.o(.text)
    __Heap_Initialize                        0x0000589f   Thumb Code    10  h1_init.o(.text)
    __Heap_DescSize                          0x000058a9   Thumb Code     4  h1_init.o(.text)
    _ll_udiv10                               0x000058ad   Thumb Code   138  lludiv10.o(.text)
    isspace                                  0x00005937   Thumb Code    18  isspace.o(.text)
    _printf_fp_hex_real                      0x00005949   Thumb Code   750  _printf_fp_hex.o(.text)
    _printf_fp_infnan                        0x00005c41   Thumb Code   112  _printf_fp_infnan.o(.text)
    _printf_lcs_common                       0x00005cc1   Thumb Code    20  _printf_wchar.o(.text)
    _printf_wchar                            0x00005cd5   Thumb Code    16  _printf_wchar.o(.text)
    _printf_wstring                          0x00005ce5   Thumb Code     8  _printf_wchar.o(.text)
    __vfscanf                                0x00005ced   Thumb Code   872  _scanf.o(.text)
    _btod_etento                             0x00006059   Thumb Code   212  bigflt0.o(.text)
    ferror                                   0x00006131   Thumb Code     8  ferror.o(.text)
    _ftell_internal                          0x00006139   Thumb Code    66  ftell.o(.text)
    ftell                                    0x00006139   Thumb Code     0  ftell.o(.text)
    setvbuf                                  0x0000617b   Thumb Code    70  setvbuf.o(.text)
    _wcrtomb                                 0x000061c1   Thumb Code    64  _wcrtomb.o(.text)
    __sig_exit                               0x00006201   Thumb Code    10  defsig_exit.o(.text)
    __rt_SIGRTRED                            0x0000620b   Thumb Code    14  defsig_rtred_outer.o(.text)
    __rt_SIGPVFN_inner                       0x00006219   Thumb Code    14  defsig_pvfn_inner.o(.text)
    std::terminate()                         0x00006249   Thumb Code    26  arm_exceptions_terminate.o(.text)
    _sys_exit                                0x00006265   Thumb Code     8  sys_exit.o(.text)
    __rt_ctype_table                         0x00006271   Thumb Code    16  rt_ctype_table.o(.text)
    __aeabi_errno_addr                       0x00006281   Thumb Code     8  rt_errno_addr.o(.text)
    __errno                                  0x00006281   Thumb Code     0  rt_errno_addr.o(.text)
    __rt_errno_addr                          0x00006281   Thumb Code     0  rt_errno_addr.o(.text)
    __Heap_ProvideMemory                     0x00006289   Thumb Code    52  h1_extend.o(.text)
    __flsbuf                                 0x000062bd   Thumb Code   470  flsbuf.o(.text)
    __flsbuf_byte                            0x000062bd   Thumb Code     0  flsbuf.o(.text)
    __flsbuf_wide                            0x000062bd   Thumb Code     0  flsbuf.o(.text)
    abort                                    0x00006493   Thumb Code    16  abort.o(.text)
    __default_signal_display                 0x000064a3   Thumb Code    50  defsig_general.o(.text)
    __rt_SIGRTRED_inner                      0x000064d5   Thumb Code    14  defsig_rtred_inner.o(.text)
    __rt_SIGRTMEM                            0x00006509   Thumb Code    14  defsig_rtmem_outer.o(.text)
    __rt_heap_escrow                         0x00006519   Thumb Code    22  heapauxa.o(.text)
    __rt_heap_expand                         0x0000652f   Thumb Code    52  heapauxa.o(.text)
    __cxa_get_globals                        0x0000656f   Thumb Code    62  arm_exceptions_globs.o(.text)
    _ttywrch                                 0x000065b9   Thumb Code    14  sys_wrch.o(.text)
    __I$use$semihosting                      0x000065c7   Thumb Code     0  use_no_semi.o(.text)
    __use_no_semihosting_swi                 0x000065c7   Thumb Code     2  use_no_semi.o(.text)
    __rt_eh_globals_addr                     0x000065c9   Thumb Code     8  rt_eh_globals_addr.o(.text)
    __semihosting_library_function           0x000065c9   Thumb Code     0  indicate_semi.o(.text)
    __rt_SIGABRT                             0x000065d1   Thumb Code    14  defsig_abrt_outer.o(.text)
    __rt_SIGRTMEM_inner                      0x000065e1   Thumb Code    22  defsig_rtmem_inner.o(.text)
    __ARM_exceptions_buffer_init             0x00006631   Thumb Code    18  arm_exceptions_mem.o(.text)
    __ARM_exceptions_buffer_allocate         0x00006643   Thumb Code    22  arm_exceptions_mem.o(.text)
    __ARM_exceptions_buffer_free             0x00006659   Thumb Code    20  arm_exceptions_mem.o(.text)
    __rt_SIGABRT_inner                       0x0000666d   Thumb Code    14  defsig_abrt_inner.o(.text)
    _btod_d2e                                0x0000669d   Thumb Code    62  btod.o(CL$$btod_d2e)
    _d2e_denorm_low                          0x000066db   Thumb Code    70  btod.o(CL$$btod_d2e_denorm_low)
    _d2e_norm_op1                            0x00006721   Thumb Code    96  btod.o(CL$$btod_d2e_norm_op1)
    __btod_div_common                        0x00006781   Thumb Code   696  btod.o(CL$$btod_div_common)
    _e2e                                     0x00006ab9   Thumb Code   198  btod.o(CL$$btod_e2e)
    _btod_ediv                               0x00006b7f   Thumb Code    40  btod.o(CL$$btod_ediv)
    _btod_emul                               0x00006ba7   Thumb Code    40  btod.o(CL$$btod_emul)
    __btod_mult_common                       0x00006bcf   Thumb Code   580  btod.o(CL$$btod_mult_common)
    main                                     0x00006e13   Thumb Code    18  retarget.o(i.$Sub$$main)
    NVIC_SetVector                           0x00006e25   Thumb Code    98  cmsis_nvic.o(i.NVIC_SetVector)
    SystemCoreClockUpdate                    0x00006e8d   Thumb Code   504  system_LPC407x_8x_177x_8x.o(i.SystemCoreClockUpdate)
    SystemInit                               0x00007091   Thumb Code   204  system_LPC407x_8x_177x_8x.o(i.SystemInit)
    FATDirHandle::~FATDirHandle__deallocating() 0x00007175   Thumb Code    18  fatdirhandle.o(i._ZN12FATDirHandleD0Ev)
    FATDirHandle::~FATDirHandle()            0x00007187   Thumb Code     4  fatdirhandle.o(i._ZN12FATDirHandleD1Ev)
    FATDirHandle::~FATDirHandle__sub_object() 0x00007187   Thumb Code     0  fatdirhandle.o(i._ZN12FATDirHandleD1Ev)
    SDFileSystem::~SDFileSystem()            0x0000718d   Thumb Code    28  main.o(i._ZN12SDFileSystemD1Ev)
    SDFileSystem::~SDFileSystem__sub_object() 0x0000718d   Thumb Code     0  main.o(i._ZN12SDFileSystemD1Ev)
    FATFileHandle::~FATFileHandle__deallocating() 0x000071ad   Thumb Code    18  fatfilehandle.o(i._ZN13FATFileHandleD0Ev)
    FATFileHandle::~FATFileHandle()          0x000071bf   Thumb Code    14  fatfilehandle.o(i._ZN13FATFileHandleD1Ev)
    FATFileHandle::~FATFileHandle__sub_object() 0x000071bf   Thumb Code     0  fatfilehandle.o(i._ZN13FATFileHandleD1Ev)
    FATFileSystem::disk_status()             0x000071cd   Thumb Code     6  fatfilesystem.o(i._ZN13FATFileSystem11disk_statusEv)
    FATFileSystem::disk_initialize()         0x000071d3   Thumb Code     6  fatfilesystem.o(i._ZN13FATFileSystem15disk_initializeEv)
    FATFileSystem::disk_sync()               0x000071d9   Thumb Code     6  fatfilesystem.o(i._ZN13FATFileSystem9disk_syncEv)
    mbed::DigitalOut::write(int)             0x000071e1   Thumb Code    52  sdfilesystem.o(i._ZN4mbed10DigitalOut5writeEi)
    mbed::DigitalOut::operator =(int)        0x00007269   Thumb Code    18  sdfilesystem.o(i._ZN4mbed10DigitalOutaSEi)
    mbed::FileHandle::flen()                 0x0000727b   Thumb Code    58  retarget.o(i._ZN4mbed10FileHandle4flenEv)
    mbed::FileHandle::~FileHandle()          0x000072b5   Thumb Code     0  retarget.o(i._ZN4mbed10FileHandleD2Ev)
    mbed::FileHandle::~FileHandle__sub_object() 0x000072b5   Thumb Code    38  retarget.o(i._ZN4mbed10FileHandleD2Ev)
    mbed::TimerEvent::irq(unsigned)          0x000072e5   Thumb Code     6  TimerEvent.o(i._ZN4mbed10TimerEvent3irqEj)
    mbed::TimerEvent::insert(unsigned long long) 0x000072eb   Thumb Code    12  TimerEvent.o(i._ZN4mbed10TimerEvent6insertEy)
    mbed::TimerEvent::remove()               0x000072f7   Thumb Code     6  TimerEvent.o(i._ZN4mbed10TimerEvent6removeEv)
    mbed::TimerEvent::TimerEvent__sub_object() 0x000072fd   Thumb Code    28  TimerEvent.o(i._ZN4mbed10TimerEventC2Ev)
    mbed::TimerEvent::~TimerEvent()          0x00007321   Thumb Code     0  TimerEvent.o(i._ZN4mbed10TimerEventD2Ev)
    mbed::TimerEvent::~TimerEvent__sub_object() 0x00007321   Thumb Code    20  TimerEvent.o(i._ZN4mbed10TimerEventD2Ev)
    mbed::FileSystemLike::mkdir(const char*, int) 0x00007339   Thumb Code     6  FileSystemLike.o(i._ZN4mbed14FileSystemLike5mkdirEPKci)
    mbed::FileSystemLike::FileSystemLike__sub_object(const char*) 0x00007341   Thumb Code    14  FileSystemLike.o(i._ZN4mbed14FileSystemLikeC2EPKc)
    mbed::FileSystemLike::~FileSystemLike()  0x00007355   Thumb Code     0  FileSystemLike.o(i._ZN4mbed14FileSystemLikeD2Ev)
    mbed::FileSystemLike::~FileSystemLike__sub_object() 0x00007355   Thumb Code     4  FileSystemLike.o(i._ZN4mbed14FileSystemLikeD2Ev)
    mbed::FunctionPointer::call()            0x00007359   Thumb Code    24  FunctionPointer.o(i._ZN4mbed15FunctionPointer4callEv)
    mbed::FunctionPointer::attach(void(*)()) 0x00007371   Thumb Code     8  FunctionPointer.o(i._ZN4mbed15FunctionPointer6attachEPFvvE)
    mbed::FunctionPointer::FunctionPointer(void(*)()) 0x00007379   Thumb Code    10  FunctionPointer.o(i._ZN4mbed15FunctionPointerC1EPFvvE)
    mbed::FunctionPointer::FunctionPointer__sub_object(void(*)()) 0x00007379   Thumb Code     0  FunctionPointer.o(i._ZN4mbed15FunctionPointerC1EPFvvE)
    mbed::SPI::write(int)                    0x00007385   Thumb Code    48  SPI.o(i._ZN4mbed3SPI5writeEi)
    mbed::SPI::frequency(int)                0x000073b9   Thumb Code    36  SPI.o(i._ZN4mbed3SPI9frequencyEi)
    mbed::SPI::SPI(PinName, PinName, PinName, PinName) 0x000073e1   Thumb Code    60  SPI.o(i._ZN4mbed3SPIC1E7PinNameS1_S1_S1_)
    mbed::SPI::SPI__sub_object(PinName, PinName, PinName, PinName) 0x000073e1   Thumb Code     0  SPI.o(i._ZN4mbed3SPIC1E7PinNameS1_S1_S1_)
    mbed::Ticker::setup(unsigned long long)  0x00007425   Thumb Code    40  Ticker.o(i._ZN4mbed6Ticker5setupEy)
    mbed::Ticker::detach()                   0x0000744d   Thumb Code    22  Ticker.o(i._ZN4mbed6Ticker6detachEv)
    mbed::Ticker::handler()                  0x00007463   Thumb Code    34  Ticker.o(i._ZN4mbed6Ticker7handlerEv)
    mbed::Ticker::~Ticker()                  0x00007485   Thumb Code    34  Ticker.o(i._ZN4mbed6TickerD1Ev)
    mbed::Ticker::~Ticker__sub_object()      0x00007485   Thumb Code     0  Ticker.o(i._ZN4mbed6TickerD1Ev)
    mbed::FileBase::getPathType()            0x000074ad   Thumb Code     4  FileBase.o(i._ZN4mbed8FileBase11getPathTypeEv)
    mbed::FileBase::lookup(const char*, unsigned) 0x000074b1   Thumb Code    50  FileBase.o(i._ZN4mbed8FileBase6lookupEPKcj)
    mbed::FileBase::FileBase(const char*, mbed::PathType) 0x000074e9   Thumb Code    28  FileBase.o(i._ZN4mbed8FileBaseC1EPKcNS_8PathTypeE)
    mbed::FileBase::FileBase__sub_object(const char*, mbed::PathType) 0x000074e9   Thumb Code     0  FileBase.o(i._ZN4mbed8FileBaseC1EPKcNS_8PathTypeE)
    mbed::FileBase::~FileBase()              0x0000750d   Thumb Code    46  FileBase.o(i._ZN4mbed8FileBaseD1Ev)
    mbed::FileBase::~FileBase__sub_object()  0x0000750d   Thumb Code     0  FileBase.o(i._ZN4mbed8FileBaseD1Ev)
    mbed::FilePath::fileSystem()             0x00007545   Thumb Code    24  FilePath.o(i._ZN4mbed8FilePath10fileSystemEv)
    mbed::FilePath::file()                   0x0000755d   Thumb Code    28  FilePath.o(i._ZN4mbed8FilePath4fileEv)
    mbed::FilePath::exists()                 0x00007579   Thumb Code    10  FilePath.o(i._ZN4mbed8FilePath6existsEv)
    mbed::FilePath::isFile()                 0x00007583   Thumb Code    24  FilePath.o(i._ZN4mbed8FilePath6isFileEv)
    mbed::FilePath::fileName()               0x0000759b   Thumb Code     4  FilePath.o(i._ZN4mbed8FilePath8fileNameEv)
    mbed::FilePath::FilePath(const char*)    0x0000759f   Thumb Code    64  FilePath.o(i._ZN4mbed8FilePathC1EPKc)
    mbed::FilePath::FilePath__sub_object(const char*) 0x0000759f   Thumb Code     0  FilePath.o(i._ZN4mbed8FilePathC1EPKc)
    operator delete (void*)                  0x000075df   Thumb Code     8  delete.o(i._ZdlPv)
    operator new(unsigned)                   0x000075e9   Thumb Code    34  new.o(i._Znwj)
    __ARM_fpclassify                         0x00007611   Thumb Code    48  fpclassify.o(i.__ARM_fpclassify)
    __aeabi_atexit                           0x00007641   Thumb Code    50  aeabi_atexit.o(i.__aeabi_atexit)
    __cxa_finalize                           0x00007673   Thumb Code    66  cxa_finalize.o(i.__cxa_finalize)
    __cxa_pure_virtual                       0x000076b5   Thumb Code     6  pure_virt.o(i.__cxa_pure_virtual)
    __hardfp_floor                           0x000076c1   Thumb Code   252  floor.o(i.__hardfp_floor)
    __reserved_stack_size                    0x000077d9   Thumb Code     4  sys_helper.o(i.__reserved_stack_size)
    __user_setup_stackheap                   0x000077dd   Thumb Code    24  sys.o(i.__user_setup_stackheap)
    _is_digit                                0x000077f9   Thumb Code    14  __printf_wp.o(i._is_digit)
    _sys_close                               0x00007809   Thumb Code    40  retarget.o(i._sys_close)
    _sys_flen                                0x00007835   Thumb Code    34  retarget.o(i._sys_flen)
    _sys_istty                               0x0000785d   Thumb Code    34  retarget.o(i._sys_istty)
    _sys_open                                0x00007885   Thumb Code   280  retarget.o(i._sys_open)
    _sys_seek                                0x000079b9   Thumb Code    36  retarget.o(i._sys_seek)
    _sys_write                               0x000079e1   Thumb Code    82  retarget.o(i._sys_write)
    error                                    0x00007a41   Thumb Code    20  error.o(i.error)
    exit                                     0x00007a59   Thumb Code    24  exit.o(i.exit)
    fputc                                    0x00007a79   Thumb Code    26  fputc.o(i.fputc)
    gpio_dir                                 0x00007a95   Thumb Code    54  gpio_api.o(i.gpio_dir)
    gpio_init                                0x00007ae9   Thumb Code    64  gpio_api.o(i.gpio_init)
    gpio_init_out                            0x00007b29   Thumb Code    64  gpio.o(i.gpio_init_out)
    gpio_mode                                0x00007b6d   Thumb Code     8  gpio_api.o(i.gpio_mode)
    mbed_assert_internal                     0x00007b75   Thumb Code    24  assert.o(i.mbed_assert_internal)
    mbed_die                                 0x00007bc5   Thumb Code   258  board.o(i.mbed_die)
    mbed_main                                0x00007ccd   Thumb Code     2  retarget.o(i.mbed_main)
    mbed_sdk_init                            0x00007ccf   Thumb Code     2  retarget.o(i.mbed_sdk_init)
    mkdir                                    0x00007cd1   Thumb Code    56  retarget.o(i.mkdir)
    pin_function                             0x00007d09   Thumb Code    36  pinmap.o(i.pin_function)
    pin_mode                                 0x00007d49   Thumb Code    56  pinmap.o(i.pin_mode)
    pinmap_merge                             0x00007d9d   Thumb Code    34  pinmap_common.o(i.pinmap_merge)
    pinmap_peripheral                        0x00007dd5   Thumb Code    58  pinmap_common.o(i.pinmap_peripheral)
    pinmap_pinout                            0x00007e31   Thumb Code    66  pinmap_common.o(i.pinmap_pinout)
    rtc_init                                 0x00007e89   Thumb Code    26  rtc_api.o(i.rtc_init)
    rtc_isenabled                            0x00007ead   Thumb Code    10  rtc_api.o(i.rtc_isenabled)
    rtc_read                                 0x00007ebd   Thumb Code    46  rtc_api.o(i.rtc_read)
    rtc_write                                0x00007ef1   Thumb Code    64  rtc_api.o(i.rtc_write)
    serial_baud                              0x00007f35   Thumb Code   260  serial_api.o(i.serial_baud)
    serial_format                            0x0000803d   Thumb Code   154  serial_api.o(i.serial_format)
    serial_init                              0x000080dd   Thumb Code   322  serial_api.o(i.serial_init)
    serial_putc                              0x0000824d   Thumb Code    14  serial_api.o(i.serial_putc)
    spi_format                               0x0000825d   Thumb Code   128  spi_api.o(i.spi_format)
    spi_frequency                            0x000082e1   Thumb Code   158  spi_api.o(i.spi_frequency)
    spi_init                                 0x00008389   Thumb Code   400  spi_api.o(i.spi_init)
    spi_master_write                         0x00008551   Thumb Code    26  spi_api.o(i.spi_master_write)
    time                                     0x0000856b   Thumb Code    34  rtc_time.o(i.time)
    us_ticker_clear_interrupt                0x0000858d   Thumb Code     8  us_ticker.o(i.us_ticker_clear_interrupt)
    us_ticker_disable_interrupt              0x00008599   Thumb Code    12  us_ticker.o(i.us_ticker_disable_interrupt)
    us_ticker_init                           0x000085a9   Thumb Code    72  us_ticker.o(i.us_ticker_init)
    us_ticker_insert_event                   0x00008609   Thumb Code    72  us_ticker_api.o(i.us_ticker_insert_event)
    us_ticker_irq_handler                    0x00008655   Thumb Code    62  us_ticker_api.o(i.us_ticker_irq_handler)
    us_ticker_read                           0x00008699   Thumb Code    70  us_ticker.o(i.us_ticker_read)
    us_ticker_remove_event                   0x000086f9   Thumb Code    56  us_ticker_api.o(i.us_ticker_remove_event)
    us_ticker_set_handler                    0x00008735   Thumb Code    14  us_ticker_api.o(i.us_ticker_set_handler)
    us_ticker_set_interrupt                  0x00008749   Thumb Code    14  us_ticker.o(i.us_ticker_set_interrupt)
    wait_ms                                  0x0000875d   Thumb Code    28  wait_api.o(i.wait_ms)
    wait_us                                  0x00008779   Thumb Code    24  wait_api.o(i.wait_us)
    _get_lc_numeric                          0x00008791   Thumb Code    44  lc_numeric_c.o(locale$$code)
    _get_lc_ctype                            0x000087bd   Thumb Code    44  lc_ctype_c.o(locale$$code)
    __aeabi_dadd                             0x000087e9   Thumb Code     0  daddsub_clz.o(x$fpl$dadd)
    _dadd                                    0x000087e9   Thumb Code   332  daddsub_clz.o(x$fpl$dadd)
    __fpl_dcmp_Inf                           0x00008939   Thumb Code    24  dcmpi.o(x$fpl$dcmpinf)
    __aeabi_d2iz                             0x00008951   Thumb Code     0  dfix.o(x$fpl$dfix)
    _dfix                                    0x00008951   Thumb Code    94  dfix.o(x$fpl$dfix)
    __aeabi_cdcmple                          0x000089b1   Thumb Code     0  dleqf.o(x$fpl$dleqf)
    _dcmple                                  0x000089b1   Thumb Code   120  dleqf.o(x$fpl$dleqf)
    __fpl_dcmple_InfNaN                      0x00008a13   Thumb Code     0  dleqf.o(x$fpl$dleqf)
    __fpl_dnaninf                            0x00008a29   Thumb Code   156  dnaninf.o(x$fpl$dnaninf)
    __fpl_dretinf                            0x00008ac5   Thumb Code    12  dretinf.o(x$fpl$dretinf)
    __aeabi_cdrcmple                         0x00008ad1   Thumb Code     0  drleqf.o(x$fpl$drleqf)
    _drcmple                                 0x00008ad1   Thumb Code   108  drleqf.o(x$fpl$drleqf)
    __aeabi_drsub                            0x00008b3d   Thumb Code     0  daddsub_clz.o(x$fpl$drsb)
    _drsb                                    0x00008b3d   Thumb Code    22  daddsub_clz.o(x$fpl$drsb)
    __aeabi_dsub                             0x00008b55   Thumb Code     0  daddsub_clz.o(x$fpl$dsub)
    _dsub                                    0x00008b55   Thumb Code   464  daddsub_clz.o(x$fpl$dsub)
    __aeabi_f2d                              0x00008d29   Thumb Code     0  f2d.o(x$fpl$f2d)
    _f2d                                     0x00008d29   Thumb Code    86  f2d.o(x$fpl$f2d)
    __fpl_fnaninf                            0x00008d7f   Thumb Code   140  fnaninf.o(x$fpl$fnaninf)
    _fp_init                                 0x00008e0b   Thumb Code    10  fpinit.o(x$fpl$fpinit)
    __fplib_config_fpu_vfp                   0x00008e13   Thumb Code     0  fpinit.o(x$fpl$fpinit)
    __fplib_config_pureend_doubles           0x00008e13   Thumb Code     0  fpinit.o(x$fpl$fpinit)
    _printf_fp_dec                           0x00008e15   Thumb Code     4  printf1.o(x$fpl$printf1)
    _printf_fp_hex                           0x00008e19   Thumb Code     4  printf2.o(x$fpl$printf2)
    __I$use$fp                               0x00008e1c   Number         0  usenofp.o(x$fpl$usenofp)
    __stdin_name                             0x000093ff   Data           7  retarget.o(.constdata)
    __stdout_name                            0x00009406   Data           8  retarget.o(.constdata)
    __stderr_name                            0x0000940e   Data           8  retarget.o(.constdata)
    _monlen                                  0x00009a70   Data          12  _monlen.o(.constdata)
    vtable for FATDirHandle                  0x00009b38   Data          36  fatdirhandle.o(.constdata__ZTV12FATDirHandle)
    vtable for SDFileSystem                  0x00009b5c   Data          64  sdfilesystem.o(.constdata__ZTV12SDFileSystem)
    vtable for FATFileHandle                 0x00009b9c   Data          44  fatfilehandle.o(.constdata__ZTV13FATFileHandle)
    vtable for FATFileSystem                 0x00009bc8   Data          64  fatfilesystem.o(.constdata__ZTV13FATFileSystem)
    vtable for mbed::FileHandle              0x00009c08   Data          44  retarget.o(.constdata__ZTVN4mbed10FileHandleE)
    vtable for mbed::TimerEvent              0x00009c34   Data          20  TimerEvent.o(.constdata__ZTVN4mbed10TimerEventE)
    vtable for mbed::FileSystemLike          0x00009c48   Data          36  FileSystemLike.o(.constdata__ZTVN4mbed14FileSystemLikeE)
    vtable for mbed::SPI                     0x00009c6c   Data          20  SPI.o(.constdata__ZTVN4mbed3SPIE)
    vtable for mbed::Ticker                  0x00009c80   Data          20  Ticker.o(.constdata__ZTVN4mbed6TickerE)
    vtable for mbed::FileBase                0x00009c94   Data          16  FileBase.o(.constdata__ZTVN4mbed8FileBaseE)
    vtable for mbed::DirHandle               0x00009ca4   Data          36  fatdirhandle.o(.constdata__ZTVN4mbed9DirHandleE)
    Region$$Table$$Base                      0x00009ecc   Number         0  anon$$obj.o(Region$$Table)
    Region$$Table$$Limit                     0x00009eec   Number         0  anon$$obj.o(Region$$Table)
    __ctype                                  0x00009f15   Data           0  lc_ctype_c.o(locale$$data)
    SHT$$INIT_ARRAY$$Base                    0x0000a018   Number         0  main.o(.init_array)
    SHT$$INIT_ARRAY$$Limit                   0x0000a01c   Number         0  init_aeabi.o(.init_array)
    fp                                       0x100000e8   Data           4  main.o(.data)
    counter                                  0x100000f0   Data           8  main.o(.data)
    timer                                    0x100000f8   Data           8  main.o(.data)
    FATFileSystem::_ffs                      0x10000100   Data           4  fatfilesystem.o(.data)
    SystemCoreClock                          0x1000010c   Data           4  system_LPC407x_8x_177x_8x.o(.data)
    PeripheralClock                          0x10000110   Data           4  system_LPC407x_8x_177x_8x.o(.data)
    EMCClock                                 0x10000114   Data           4  system_LPC407x_8x_177x_8x.o(.data)
    USBClock                                 0x10000118   Data           4  system_LPC407x_8x_177x_8x.o(.data)
    stdio_uart_inited                        0x1000011c   Data           4  serial_api.o(.data)
    stdio_uart                               0x10000124   Data           8  serial_api.o(.data)
    mbed::SPI::_owner                        0x1000012c   Data           4  SPI.o(.data)
    us_ticker_inited                         0x10000130   Data           4  us_ticker.o(.data)
    mbed::FileBase::_head                    0x10000134   Data           4  FileBase.o(.data)
    __aeabi_stdin                            0x10000140   Data           4  stdio_streams.o(.data)
    __aeabi_stdout                           0x10000144   Data           4  stdio_streams.o(.data)
    __aeabi_stderr                           0x10000148   Data           4  stdio_streams.o(.data)
    sd                                       0x10000150   Data         640  main.o(.bss)
    ticker                                   0x100003d0   Data          64  main.o(.bss)
    __stdin                                  0x10000650   Data          84  stdio_streams.o(.bss)
    __stdout                                 0x100006a4   Data          84  stdio_streams.o(.bss)
    __stderr                                 0x100006f8   Data          84  stdio_streams.o(.bss)
    Image$$RW_IRAM1$$ZI$$Limit               0x100007a0   Number         0  anon$$obj.o ABSOLUTE



==============================================================================

Memory Map of the image

  Image Entry point : 0x000000e5

  Load Region LR_IROM1 (Base: 0x00000000, Size: 0x0000a084, Max: 0x00080000, ABSOLUTE)

    Execution Region ER_IROM1 (Base: 0x00000000, Size: 0x0000a01c, Max: 0x00080000, ABSOLUTE)

    Base Addr    Size         Type   Attr      Idx    E Section Name        Object

    0x00000000   0x000000e4   Data   RO          705    RESET               startup_LPC407x_8x_177x_8x.o
    0x000000e4   0x00000008   Code   RO         1321  * !!!main             c_w.l(__main.o)
    0x000000ec   0x00000034   Code   RO         2006    !!!scatter          c_w.l(__scatter.o)
    0x00000120   0x0000001a   Code   RO         2008    !!handler_copy      c_w.l(__scatter_copy.o)
    0x0000013a   0x00000002   PAD
    0x0000013c   0x0000001c   Code   RO         2010    !!handler_zi        c_w.l(__scatter_zi.o)
    0x00000158   0x00000000   Code   RO         1274    .ARM.Collect$$_printf_percent$$00000000  c_w.l(_printf_percent.o)
    0x00000158   0x00000006   Code   RO         1590    .ARM.Collect$$_printf_percent$$00000001  c_w.l(_printf_n.o)
    0x0000015e   0x00000006   Code   RO         1592    .ARM.Collect$$_printf_percent$$00000002  c_w.l(_printf_p.o)
    0x00000164   0x00000006   Code   RO         1273    .ARM.Collect$$_printf_percent$$00000003  c_w.l(_printf_f.o)
    0x0000016a   0x00000006   Code   RO         1596    .ARM.Collect$$_printf_percent$$00000004  c_w.l(_printf_e.o)
    0x00000170   0x00000006   Code   RO         1597    .ARM.Collect$$_printf_percent$$00000005  c_w.l(_printf_g.o)
    0x00000176   0x00000006   Code   RO         1598    .ARM.Collect$$_printf_percent$$00000006  c_w.l(_printf_a.o)
    0x0000017c   0x0000000a   Code   RO         1603    .ARM.Collect$$_printf_percent$$00000007  c_w.l(_printf_ll.o)
    0x00000186   0x00000006   Code   RO         1594    .ARM.Collect$$_printf_percent$$00000008  c_w.l(_printf_i.o)
    0x0000018c   0x00000006   Code   RO         1272    .ARM.Collect$$_printf_percent$$00000009  c_w.l(_printf_d.o)
    0x00000192   0x00000006   Code   RO         1595    .ARM.Collect$$_printf_percent$$0000000A  c_w.l(_printf_u.o)
    0x00000198   0x00000006   Code   RO         1593    .ARM.Collect$$_printf_percent$$0000000B  c_w.l(_printf_o.o)
    0x0000019e   0x00000006   Code   RO         1591    .ARM.Collect$$_printf_percent$$0000000C  c_w.l(_printf_x.o)
    0x000001a4   0x00000006   Code   RO         1600    .ARM.Collect$$_printf_percent$$0000000D  c_w.l(_printf_lli.o)
    0x000001aa   0x00000006   Code   RO         1601    .ARM.Collect$$_printf_percent$$0000000E  c_w.l(_printf_lld.o)
    0x000001b0   0x00000006   Code   RO         1602    .ARM.Collect$$_printf_percent$$0000000F  c_w.l(_printf_llu.o)
    0x000001b6   0x00000006   Code   RO         1607    .ARM.Collect$$_printf_percent$$00000010  c_w.l(_printf_llo.o)
    0x000001bc   0x00000006   Code   RO         1608    .ARM.Collect$$_printf_percent$$00000011  c_w.l(_printf_llx.o)
    0x000001c2   0x0000000a   Code   RO         1604    .ARM.Collect$$_printf_percent$$00000012  c_w.l(_printf_l.o)
    0x000001cc   0x00000006   Code   RO         1589    .ARM.Collect$$_printf_percent$$00000013  c_w.l(_printf_c.o)
    0x000001d2   0x00000006   Code   RO         1271    .ARM.Collect$$_printf_percent$$00000014  c_w.l(_printf_s.o)
    0x000001d8   0x00000006   Code   RO         1605    .ARM.Collect$$_printf_percent$$00000015  c_w.l(_printf_lc.o)
    0x000001de   0x00000006   Code   RO         1606    .ARM.Collect$$_printf_percent$$00000016  c_w.l(_printf_ls.o)
    0x000001e4   0x00000004   Code   RO         1599    .ARM.Collect$$_printf_percent$$00000017  c_w.l(_printf_percent_end.o)
    0x000001e8   0x00000002   Code   RO         1934    .ARM.Collect$$libinit$$00000000  c_w.l(libinit.o)
    0x000001ea   0x00000004   Code   RO         1633    .ARM.Collect$$libinit$$00000001  c_w.l(libinit2.o)
    0x000001ee   0x00000008   Code   RO         1635    .ARM.Collect$$libinit$$00000003  c_w.l(libinit2.o)
    0x000001f6   0x00000000   Code   RO         1637    .ARM.Collect$$libinit$$00000008  c_w.l(libinit2.o)
    0x000001f6   0x00000000   Code   RO         1639    .ARM.Collect$$libinit$$0000000A  c_w.l(libinit2.o)
    0x000001f6   0x00000000   Code   RO         1641    .ARM.Collect$$libinit$$0000000C  c_w.l(libinit2.o)
    0x000001f6   0x00000006   Code   RO         1642    .ARM.Collect$$libinit$$0000000D  c_w.l(libinit2.o)
    0x000001fc   0x00000000   Code   RO         1644    .ARM.Collect$$libinit$$0000000F  c_w.l(libinit2.o)
    0x000001fc   0x0000000c   Code   RO         1645    .ARM.Collect$$libinit$$00000010  c_w.l(libinit2.o)
    0x00000208   0x00000000   Code   RO         1646    .ARM.Collect$$libinit$$00000011  c_w.l(libinit2.o)
    0x00000208   0x00000000   Code   RO         1648    .ARM.Collect$$libinit$$00000013  c_w.l(libinit2.o)
    0x00000208   0x0000000a   Code   RO         1649    .ARM.Collect$$libinit$$00000014  c_w.l(libinit2.o)
    0x00000212   0x00000000   Code   RO         1650    .ARM.Collect$$libinit$$00000015  c_w.l(libinit2.o)
    0x00000212   0x00000000   Code   RO         1652    .ARM.Collect$$libinit$$00000017  c_w.l(libinit2.o)
    0x00000212   0x00000000   Code   RO         1654    .ARM.Collect$$libinit$$00000019  c_w.l(libinit2.o)
    0x00000212   0x00000000   Code   RO         1656    .ARM.Collect$$libinit$$0000001B  c_w.l(libinit2.o)
    0x00000212   0x00000000   Code   RO         1658    .ARM.Collect$$libinit$$0000001D  c_w.l(libinit2.o)
    0x00000212   0x00000000   Code   RO         1660    .ARM.Collect$$libinit$$0000001F  c_w.l(libinit2.o)
    0x00000212   0x00000000   Code   RO         1662    .ARM.Collect$$libinit$$00000021  c_w.l(libinit2.o)
    0x00000212   0x00000004   Code   RO         1663    .ARM.Collect$$libinit$$00000022  c_w.l(libinit2.o)
    0x00000216   0x00000000   Code   RO         1664    .ARM.Collect$$libinit$$00000023  c_w.l(libinit2.o)
    0x00000216   0x00000000   Code   RO         1668    .ARM.Collect$$libinit$$0000002A  c_w.l(libinit2.o)
    0x00000216   0x00000000   Code   RO         1670    .ARM.Collect$$libinit$$0000002C  c_w.l(libinit2.o)
    0x00000216   0x00000000   Code   RO         1672    .ARM.Collect$$libinit$$0000002E  c_w.l(libinit2.o)
    0x00000216   0x00000004   Code   RO         1673    .ARM.Collect$$libinit$$0000002F  c_w.l(libinit2.o)
    0x0000021a   0x00000000   Code   RO         1674    .ARM.Collect$$libinit$$00000030  c_w.l(libinit2.o)
    0x0000021a   0x00000002   Code   RO         1675    .ARM.Collect$$libinit$$00000031  c_w.l(libinit2.o)
    0x0000021c   0x00000006   Code   RO         1676    .ARM.Collect$$libshutdown$$00000001  c_w.l(libshutdown2.o)
    0x00000222   0x00000000   Code   RO         1678    .ARM.Collect$$libshutdown$$00000003  c_w.l(libshutdown2.o)
    0x00000222   0x00000000   Code   RO         1466    .ARM.Collect$$rtentry$$00000000  c_w.l(rtentry.o)
    0x00000222   0x00000000   Code   RO         1746    .ARM.Collect$$rtentry$$00000002  c_w.l(rtentry2.o)
    0x00000222   0x00000006   Code   RO         1758    .ARM.Collect$$rtentry$$00000004  c_w.l(rtentry4.o)
    0x00000228   0x00000000   Code   RO         1748    .ARM.Collect$$rtentry$$00000009  c_w.l(rtentry2.o)
    0x00000228   0x00000004   Code   RO         1749    .ARM.Collect$$rtentry$$0000000A  c_w.l(rtentry2.o)
    0x0000022c   0x00000000   Code   RO         1751    .ARM.Collect$$rtentry$$0000000C  c_w.l(rtentry2.o)
    0x0000022c   0x00000008   Code   RO         1752    .ARM.Collect$$rtentry$$0000000D  c_w.l(rtentry2.o)
    0x00000234   0x00000000   Code   RO         1900    .emb_text           c_w.l(maybetermalloc1.o)
    0x00000234   0x00000088   Code   RO          537    .text               fatdirhandle.o
    0x000002bc   0x00000024   Code   RO          707    .text               startup_LPC407x_8x_177x_8x.o
    0x000002e0   0x0000000a   Code   RO         1229    .text               c_w.l(vfprintf.o)
    0x000002ea   0x0000000a   Code   RO         1231    .text               c_w.l(c89vfprintf.o)
    0x000002f4   0x00000008   Code   RO         1467    .text               c_w.l(rt_new_handler_addr.o)
    0x000002fc   0x00000004   Code   RO          706    .ARM.__at_0x02FC    startup_LPC407x_8x_177x_8x.o
    0x00000300   0x000001d4   Code   RO            3    .text               main.o
    0x000004d4   0x00000994   Code   RO          303    .text               sdfilesystem.o
    0x00000e68   0x0000034c   Code   RO          427    .text               fatfilesystem.o
    0x000011b4   0x000001c4   Code   RO          493    .text               fatfilehandle.o
    0x00001378   0x00000288   Code   RO          605    .text               diskio.o
    0x00001600   0x00000080   Code   RO          653    .text               ccsbcs.o
    0x00001680   0x00002998   Code   RO          671    .text               ff.o
    0x00004018   0x00000018   Code   RO         1233    .text               c_w.l(__2printf.o)
    0x00004030   0x00000014   Code   RO         1235    .text               c_w.l(__2fprintf.o)
    0x00004044   0x0000002c   Code   RO         1237    .text               c_w.l(__2sprintf.o)
    0x00004070   0x00000052   Code   RO         1247    .text               c_w.l(_printf_str.o)
    0x000040c2   0x00000002   PAD
    0x000040c4   0x00000074   Code   RO         1249    .text               c_w.l(_printf_dec.o)
    0x00004138   0x00000188   Code   RO         1268    .text               c_w.l(__printf_flags_ss_wp.o)
    0x000042c0   0x0000003c   Code   RO         1275    .text               c_w.l(__0sscanf.o)
    0x000042fc   0x0000014c   Code   RO         1277    .text               c_w.l(_scanf_int.o)
    0x00004448   0x00000064   Code   RO         1279    .text               c_w.l(fflush.o)
    0x000044ac   0x000000ec   Code   RO         1281    .text               c_w.l(fopen.o)
    0x00004598   0x0000004c   Code   RO         1289    .text               c_w.l(fclose.o)
    0x000045e4   0x0000003e   Code   RO         1300    .text               c_w.l(strlen.o)
    0x00004622   0x00000096   Code   RO         1302    .text               c_w.l(strncmp.o)
    0x000046b8   0x0000008a   Code   RO         1304    .text               c_w.l(rt_memcpy_v6.o)
    0x00004742   0x00000064   Code   RO         1306    .text               c_w.l(rt_memcpy_w.o)
    0x000047a6   0x0000007a   Code   RO         1308    .text               c_w.l(rt_memmove_w.o)
    0x00004820   0x0000004e   Code   RO         1310    .text               c_w.l(rt_memclr_w.o)
    0x0000486e   0x00000002   PAD
    0x00004870   0x00000080   Code   RO         1314    .text               c_w.l(strcmpv7m.o)
    0x000048f0   0x0000000c   Code   RO         1316    .text               c_w.l(localtime.o)
    0x000048fc   0x000001a4   Code   RO         1319    .text               c_w.l(mktime.o)
    0x00004aa0   0x00000024   Code   RO         1326    .text               c_w.l(init_aeabi.o)
    0x00004ac4   0x00000008   Code   RO         1472    .text               c_w.l(rt_ddtor_pointer_addr.o)
    0x00004acc   0x0000005e   Code   RO         1481    .text               c_w.l(h1_alloc.o)
    0x00004b2a   0x0000004e   Code   RO         1483    .text               c_w.l(h1_free.o)
    0x00004b78   0x0000004e   Code   RO         1539    .text               c_w.l(_printf_pad.o)
    0x00004bc6   0x00000024   Code   RO         1541    .text               c_w.l(_printf_truncate.o)
    0x00004bea   0x000000b2   Code   RO         1543    .text               c_w.l(_printf_intcommon.o)
    0x00004c9c   0x00000028   Code   RO         1545    .text               c_w.l(_printf_charcount.o)
    0x00004cc4   0x00000416   Code   RO         1547    .text               c_w.l(_printf_fp_dec.o)
    0x000050da   0x00000002   PAD
    0x000050dc   0x00000030   Code   RO         1549    .text               c_w.l(_printf_char_common.o)
    0x0000510c   0x0000000a   Code   RO         1551    .text               c_w.l(_sputc.o)
    0x00005116   0x0000002c   Code   RO         1553    .text               c_w.l(_printf_char.o)
    0x00005142   0x00000002   PAD
    0x00005144   0x00000024   Code   RO         1555    .text               c_w.l(_printf_char_file.o)
    0x00005168   0x000000bc   Code   RO         1557    .text               c_w.l(_printf_wctomb.o)
    0x00005224   0x00000078   Code   RO         1560    .text               c_w.l(_printf_longlong_dec.o)
    0x0000529c   0x00000070   Code   RO         1566    .text               c_w.l(_printf_oct_int_ll.o)
    0x0000530c   0x00000094   Code   RO         1586    .text               c_w.l(_printf_hex_int_ll_ptr.o)
    0x000053a0   0x0000001c   Code   RO         1609    .text               c_w.l(_chval.o)
    0x000053bc   0x0000002c   Code   RO         1611    .text               c_w.l(scanf_char.o)
    0x000053e8   0x00000040   Code   RO         1613    .text               c_w.l(_sgetc.o)
    0x00005428   0x000000f8   Code   RO         1615    .text               c_w.l(fseek.o)
    0x00005520   0x000000f0   Code   RO         1617    .text               c_w.l(stdio.o)
    0x00005610   0x00000138   Code   RO         1620    .text               c_w.l(initio.o)
    0x00005748   0x0000000e   Code   RO         1624    .text               c_w.l(defsig_pvfn_outer.o)
    0x00005756   0x00000002   PAD
    0x00005758   0x000000a4   Code   RO         1631    .text               c_w.l(localtime_internal.o)
    0x000057fc   0x00000004   Code   RO         1696    .text               cpprt_w.l(arm_newhandler_noexceptions.o)
    0x00005800   0x00000008   Code   RO         1762    .text               c_w.l(rt_heap_descriptor.o)
    0x00005808   0x00000008   Code   RO         1767    .text               c_w.l(rt_locale.o)
    0x00005810   0x00000004   Code   RO         1772    .text               c_w.l(hguard.o)
    0x00005814   0x0000008a   Code   RO         1774    .text               c_w.l(init_alloc.o)
    0x0000589e   0x0000000e   Code   RO         1778    .text               c_w.l(h1_init.o)
    0x000058ac   0x0000008a   Code   RO         1792    .text               c_w.l(lludiv10.o)
    0x00005936   0x00000012   Code   RO         1794    .text               c_w.l(isspace.o)
    0x00005948   0x000002f8   Code   RO         1796    .text               c_w.l(_printf_fp_hex.o)
    0x00005c40   0x00000080   Code   RO         1799    .text               c_w.l(_printf_fp_infnan.o)
    0x00005cc0   0x0000002c   Code   RO         1803    .text               c_w.l(_printf_wchar.o)
    0x00005cec   0x0000036c   Code   RO         1805    .text               c_w.l(_scanf.o)
    0x00006058   0x000000d8   Code   RO         1807    .text               c_w.l(bigflt0.o)
    0x00006130   0x00000008   Code   RO         1832    .text               c_w.l(ferror.o)
    0x00006138   0x00000042   Code   RO         1838    .text               c_w.l(ftell.o)
    0x0000617a   0x00000046   Code   RO         1840    .text               c_w.l(setvbuf.o)
    0x000061c0   0x00000040   Code   RO         1848    .text               c_w.l(_wcrtomb.o)
    0x00006200   0x0000000a   Code   RO         1853    .text               c_w.l(defsig_exit.o)
    0x0000620a   0x0000000e   Code   RO         1855    .text               c_w.l(defsig_rtred_outer.o)
    0x00006218   0x00000030   Code   RO         1859    .text               c_w.l(defsig_pvfn_inner.o)
    0x00006248   0x0000001a   Code   RO         1867    .text               cpprt_w.l(arm_exceptions_terminate.o)
    0x00006262   0x00000002   PAD
    0x00006264   0x0000000c   Code   RO         1889    .text               c_w.l(sys_exit.o)
    0x00006270   0x00000010   Code   RO         1891    .text               c_w.l(rt_ctype_table.o)
    0x00006280   0x00000008   Code   RO         1893    .text               c_w.l(rt_errno_addr.o)
    0x00006288   0x00000034   Code   RO         1902    .text               c_w.l(h1_extend.o)
    0x000062bc   0x000001d6   Code   RO         1906    .text               c_w.l(flsbuf.o)
    0x00006492   0x00000010   Code   RO         1908    .text               c_w.l(abort.o)
    0x000064a2   0x00000032   Code   RO         1912    .text               c_w.l(defsig_general.o)
    0x000064d4   0x00000034   Code   RO         1914    .text               c_w.l(defsig_rtred_inner.o)
    0x00006508   0x0000000e   Code   RO         1916    .text               c_w.l(defsig_rtmem_outer.o)
    0x00006516   0x00000002   PAD
    0x00006518   0x00000050   Code   RO         1920    .text               c_w.l(heapauxa.o)
    0x00006568   0x00000050   Code   RO         1943    .text               cpprt_w.l(arm_exceptions_globs.o)
    0x000065b8   0x0000000e   Code   RO         1949    .text               c_w.l(sys_wrch.o)
    0x000065c6   0x00000002   Code   RO         1951    .text               c_w.l(use_no_semi.o)
    0x000065c8   0x00000000   Code   RO         1953    .text               c_w.l(indicate_semi.o)
    0x000065c8   0x00000008   Code   RO         1954    .text               c_w.l(rt_eh_globals_addr.o)
    0x000065d0   0x0000000e   Code   RO         1972    .text               c_w.l(defsig_abrt_outer.o)
    0x000065de   0x00000002   PAD
    0x000065e0   0x00000050   Code   RO         1976    .text               c_w.l(defsig_rtmem_inner.o)
    0x00006630   0x0000003c   Code   RO         1982    .text               cpprt_w.l(arm_exceptions_mem.o)
    0x0000666c   0x00000030   Code   RO         1993    .text               c_w.l(defsig_abrt_inner.o)
    0x0000669c   0x0000003e   Code   RO         1810    CL$$btod_d2e        c_w.l(btod.o)
    0x000066da   0x00000046   Code   RO         1812    CL$$btod_d2e_denorm_low  c_w.l(btod.o)
    0x00006720   0x00000060   Code   RO         1811    CL$$btod_d2e_norm_op1  c_w.l(btod.o)
    0x00006780   0x00000338   Code   RO         1820    CL$$btod_div_common  c_w.l(btod.o)
    0x00006ab8   0x000000c6   Code   RO         1817    CL$$btod_e2e        c_w.l(btod.o)
    0x00006b7e   0x00000028   Code   RO         1814    CL$$btod_ediv       c_w.l(btod.o)
    0x00006ba6   0x00000028   Code   RO         1813    CL$$btod_emul       c_w.l(btod.o)
    0x00006bce   0x00000244   Code   RO         1819    CL$$btod_mult_common  c_w.l(btod.o)
    0x00006e12   0x00000012   Code   RO          729    i.$Sub$$main        retarget.o
    0x00006e24   0x00000068   Code   RO          697    i.NVIC_SetVector    cmsis_nvic.o
    0x00006e8c   0x00000204   Code   RO          711    i.SystemCoreClockUpdate  system_LPC407x_8x_177x_8x.o
    0x00007090   0x000000e4   Code   RO          712    i.SystemInit        system_LPC407x_8x_177x_8x.o
    0x00007174   0x00000012   Code   RO          552    i._ZN12FATDirHandleD0Ev  fatdirhandle.o
    0x00007186   0x00000004   Code   RO          549    i._ZN12FATDirHandleD1Ev  fatdirhandle.o
    0x0000718a   0x00000002   PAD
    0x0000718c   0x00000020   Code   RO           26    i._ZN12SDFileSystemD1Ev  main.o
    0x000071ac   0x00000012   Code   RO          514    i._ZN13FATFileHandleD0Ev  fatfilehandle.o
    0x000071be   0x0000000e   Code   RO          511    i._ZN13FATFileHandleD1Ev  fatfilehandle.o
    0x000071cc   0x00000006   Code   RO          453    i._ZN13FATFileSystem11disk_statusEv  fatfilesystem.o
    0x000071d2   0x00000006   Code   RO          447    i._ZN13FATFileSystem15disk_initializeEv  fatfilesystem.o
    0x000071d8   0x00000006   Code   RO          459    i._ZN13FATFileSystem9disk_syncEv  fatfilesystem.o
    0x000071de   0x00000002   PAD
    0x000071e0   0x00000088   Code   RO          335    i._ZN4mbed10DigitalOut5writeEi  sdfilesystem.o
    0x00007268   0x00000012   Code   RO          320    i._ZN4mbed10DigitalOutaSEi  sdfilesystem.o
    0x0000727a   0x0000003a   Code   RO          827    i._ZN4mbed10FileHandle4flenEv  retarget.o
    0x000072b4   0x00000030   Code   RO          731    i._ZN4mbed10FileHandleD2Ev  retarget.o
    0x000072e4   0x00000006   Code   RO         1030    i._ZN4mbed10TimerEvent3irqEj  mbed.ar(TimerEvent.o)
    0x000072ea   0x0000000c   Code   RO         1031    i._ZN4mbed10TimerEvent6insertEy  mbed.ar(TimerEvent.o)
    0x000072f6   0x00000006   Code   RO         1032    i._ZN4mbed10TimerEvent6removeEv  mbed.ar(TimerEvent.o)
    0x000072fc   0x00000024   Code   RO         1033    i._ZN4mbed10TimerEventC2Ev  mbed.ar(TimerEvent.o)
    0x00007320   0x00000018   Code   RO         1035    i._ZN4mbed10TimerEventD2Ev  mbed.ar(TimerEvent.o)
    0x00007338   0x00000006   Code   RO          915    i._ZN4mbed14FileSystemLike5mkdirEPKci  mbed.ar(FileSystemLike.o)
    0x0000733e   0x00000002   PAD
    0x00007340   0x00000014   Code   RO          890    i._ZN4mbed14FileSystemLikeC2EPKc  mbed.ar(FileSystemLike.o)
    0x00007354   0x00000004   Code   RO          892    i._ZN4mbed14FileSystemLikeD2Ev  mbed.ar(FileSystemLike.o)
    0x00007358   0x00000018   Code   RO          878    i._ZN4mbed15FunctionPointer4callEv  mbed.ar(FunctionPointer.o)
    0x00007370   0x00000008   Code   RO          879    i._ZN4mbed15FunctionPointer6attachEPFvvE  mbed.ar(FunctionPointer.o)
    0x00007378   0x0000000a   Code   RO          880    i._ZN4mbed15FunctionPointerC1EPFvvE  mbed.ar(FunctionPointer.o)
    0x00007382   0x00000002   PAD
    0x00007384   0x00000034   Code   RO          994    i._ZN4mbed3SPI5writeEi  mbed.ar(SPI.o)
    0x000073b8   0x00000028   Code   RO          997    i._ZN4mbed3SPI9frequencyEi  mbed.ar(SPI.o)
    0x000073e0   0x00000044   Code   RO          998    i._ZN4mbed3SPIC1E7PinNameS1_S1_S1_  mbed.ar(SPI.o)
    0x00007424   0x00000028   Code   RO          973    i._ZN4mbed6Ticker5setupEy  mbed.ar(Ticker.o)
    0x0000744c   0x00000016   Code   RO          974    i._ZN4mbed6Ticker6detachEv  mbed.ar(Ticker.o)
    0x00007462   0x00000022   Code   RO          975    i._ZN4mbed6Ticker7handlerEv  mbed.ar(Ticker.o)
    0x00007484   0x00000028   Code   RO          984    i._ZN4mbed6TickerD1Ev  mbed.ar(Ticker.o)
    0x000074ac   0x00000004   Code   RO         1168    i._ZN4mbed8FileBase11getPathTypeEv  mbed.ar(FileBase.o)
    0x000074b0   0x00000038   Code   RO         1170    i._ZN4mbed8FileBase6lookupEPKcj  mbed.ar(FileBase.o)
    0x000074e8   0x00000024   Code   RO         1172    i._ZN4mbed8FileBaseC1EPKcNS_8PathTypeE  mbed.ar(FileBase.o)
    0x0000750c   0x00000038   Code   RO         1174    i._ZN4mbed8FileBaseD1Ev  mbed.ar(FileBase.o)
    0x00007544   0x00000018   Code   RO          950    i._ZN4mbed8FilePath10fileSystemEv  mbed.ar(FilePath.o)
    0x0000755c   0x0000001c   Code   RO          952    i._ZN4mbed8FilePath4fileEv  mbed.ar(FilePath.o)
    0x00007578   0x0000000a   Code   RO          953    i._ZN4mbed8FilePath6existsEv  mbed.ar(FilePath.o)
    0x00007582   0x00000018   Code   RO          954    i._ZN4mbed8FilePath6isFileEv  mbed.ar(FilePath.o)
    0x0000759a   0x00000004   Code   RO          955    i._ZN4mbed8FilePath8fileNameEv  mbed.ar(FilePath.o)
    0x0000759e   0x00000040   Code   RO          956    i._ZN4mbed8FilePathC1EPKc  mbed.ar(FilePath.o)
    0x000075de   0x00000008   Code   RO         1329    i._ZdlPv            cpprt_w.l(delete.o)
    0x000075e6   0x00000002   PAD
    0x000075e8   0x00000028   Code   RO         1332    i._Znwj             cpprt_w.l(new.o)
    0x00007610   0x00000030   Code   RO         1887    i.__ARM_fpclassify  m_wm.l(fpclassify.o)
    0x00007640   0x00000032   Code   RO         1339    i.__aeabi_atexit    cpprt_w.l(aeabi_atexit.o)
    0x00007672   0x00000042   Code   RO         1712    i.__cxa_finalize    cpprt_w.l(cxa_finalize.o)
    0x000076b4   0x00000006   Code   RO         1336    i.__cxa_pure_virtual  cpprt_w.l(pure_virt.o)
    0x000076ba   0x00000006   PAD
    0x000076c0   0x00000118   Code   RO         1458    i.__hardfp_floor    m_wm.l(floor.o)
    0x000077d8   0x00000004   Code   RO          702    i.__reserved_stack_size  sys_helper.o
    0x000077dc   0x0000001c   Code   RO          691    i.__user_setup_stackheap  sys.o
    0x000077f8   0x0000000e   Code   RO         1261    i._is_digit         c_w.l(__printf_wp.o)
    0x00007806   0x00000002   PAD
    0x00007808   0x0000002c   Code   RO          732    i._sys_close        retarget.o
    0x00007834   0x00000028   Code   RO          735    i._sys_flen         retarget.o
    0x0000785c   0x00000028   Code   RO          736    i._sys_istty        retarget.o
    0x00007884   0x00000134   Code   RO          737    i._sys_open         retarget.o
    0x000079b8   0x00000028   Code   RO          739    i._sys_seek         retarget.o
    0x000079e0   0x00000060   Code   RO          740    i._sys_write        retarget.o
    0x00007a40   0x00000018   Code   RO         1057    i.error             mbed.ar(error.o)
    0x00007a58   0x00000020   Code   RO         1198    i.exit              mbed.ar(exit.o)
    0x00007a78   0x0000001a   Code   RO         1835    i.fputc             c_w.l(fputc.o)
    0x00007a92   0x00000002   PAD
    0x00007a94   0x00000054   Code   RO         1094    i.gpio_dir          mbed.ar(gpio_api.o)
    0x00007ae8   0x00000040   Code   RO         1095    i.gpio_init         mbed.ar(gpio_api.o)
    0x00007b28   0x00000044   Code   RO         1066    i.gpio_init_out     mbed.ar(gpio.o)
    0x00007b6c   0x00000008   Code   RO         1096    i.gpio_mode         mbed.ar(gpio_api.o)
    0x00007b74   0x00000050   Code   RO         1024    i.mbed_assert_internal  mbed.ar(assert.o)
    0x00007bc4   0x00000108   Code   RO          722    i.mbed_die          board.o
    0x00007ccc   0x00000002   Code   RO          742    i.mbed_main         retarget.o
    0x00007cce   0x00000002   Code   RO          743    i.mbed_sdk_init     retarget.o
    0x00007cd0   0x00000038   Code   RO          744    i.mkdir             retarget.o
    0x00007d08   0x00000040   Code   RO         1107    i.pin_function      mbed.ar(pinmap.o)
    0x00007d48   0x00000054   Code   RO         1108    i.pin_mode          mbed.ar(pinmap.o)
    0x00007d9c   0x00000038   Code   RO         1205    i.pinmap_merge      mbed.ar(pinmap_common.o)
    0x00007dd4   0x0000005c   Code   RO         1206    i.pinmap_peripheral  mbed.ar(pinmap_common.o)
    0x00007e30   0x00000058   Code   RO         1207    i.pinmap_pinout     mbed.ar(pinmap_common.o)
    0x00007e88   0x00000024   Code   RO         1117    i.rtc_init          mbed.ar(rtc_api.o)
    0x00007eac   0x00000010   Code   RO         1118    i.rtc_isenabled     mbed.ar(rtc_api.o)
    0x00007ebc   0x00000034   Code   RO         1119    i.rtc_read          mbed.ar(rtc_api.o)
    0x00007ef0   0x00000044   Code   RO         1120    i.rtc_write         mbed.ar(rtc_api.o)
    0x00007f34   0x00000108   Code   RO          835    i.serial_baud       mbed.ar(serial_api.o)
    0x0000803c   0x000000a0   Code   RO          839    i.serial_format     mbed.ar(serial_api.o)
    0x000080dc   0x00000170   Code   RO          842    i.serial_init       mbed.ar(serial_api.o)
    0x0000824c   0x0000000e   Code   RO          846    i.serial_putc       mbed.ar(serial_api.o)
    0x0000825a   0x00000002   PAD
    0x0000825c   0x00000084   Code   RO         1146    i.spi_format        mbed.ar(spi_api.o)
    0x000082e0   0x000000a8   Code   RO         1148    i.spi_frequency     mbed.ar(spi_api.o)
    0x00008388   0x000001c8   Code   RO         1149    i.spi_init          mbed.ar(spi_api.o)
    0x00008550   0x0000001a   Code   RO         1150    i.spi_master_write  mbed.ar(spi_api.o)
    0x0000856a   0x00000022   Code   RO         1086    i.time              mbed.ar(rtc_time.o)
    0x0000858c   0x0000000c   Code   RO         1130    i.us_ticker_clear_interrupt  mbed.ar(us_ticker.o)
    0x00008598   0x00000010   Code   RO         1131    i.us_ticker_disable_interrupt  mbed.ar(us_ticker.o)
    0x000085a8   0x00000060   Code   RO         1132    i.us_ticker_init    mbed.ar(us_ticker.o)
    0x00008608   0x0000004c   Code   RO         1216    i.us_ticker_insert_event  mbed.ar(us_ticker_api.o)
    0x00008654   0x00000044   Code   RO         1217    i.us_ticker_irq_handler  mbed.ar(us_ticker_api.o)
    0x00008698   0x00000060   Code   RO         1133    i.us_ticker_read    mbed.ar(us_ticker.o)
    0x000086f8   0x0000003c   Code   RO         1218    i.us_ticker_remove_event  mbed.ar(us_ticker_api.o)
    0x00008734   0x00000014   Code   RO         1219    i.us_ticker_set_handler  mbed.ar(us_ticker_api.o)
    0x00008748   0x00000014   Code   RO         1134    i.us_ticker_set_interrupt  mbed.ar(us_ticker.o)
    0x0000875c   0x0000001c   Code   RO         1077    i.wait_ms           mbed.ar(wait_api.o)
    0x00008778   0x00000018   Code   RO         1078    i.wait_us           mbed.ar(wait_api.o)
    0x00008790   0x0000002c   Code   RO         1851    locale$$code        c_w.l(lc_numeric_c.o)
    0x000087bc   0x0000002c   Code   RO         1968    locale$$code        c_w.l(lc_ctype_c.o)
    0x000087e8   0x00000150   Code   RO         1442    x$fpl$dadd          fz_wm.l(daddsub_clz.o)
    0x00008938   0x00000018   Code   RO         1725    x$fpl$dcmpinf       fz_wm.l(dcmpi.o)
    0x00008950   0x0000005e   Code   RO         1448    x$fpl$dfix          fz_wm.l(dfix.o)
    0x000089ae   0x00000002   PAD
    0x000089b0   0x00000078   Code   RO         1452    x$fpl$dleqf         fz_wm.l(dleqf.o)
    0x00008a28   0x0000009c   Code   RO         1727    x$fpl$dnaninf       fz_wm.l(dnaninf.o)
    0x00008ac4   0x0000000c   Code   RO         1729    x$fpl$dretinf       fz_wm.l(dretinf.o)
    0x00008ad0   0x0000006c   Code   RO         1731    x$fpl$drleqf        fz_wm.l(drleqf.o)
    0x00008b3c   0x00000016   Code   RO         1443    x$fpl$drsb          fz_wm.l(daddsub_clz.o)
    0x00008b52   0x00000002   PAD
    0x00008b54   0x000001d4   Code   RO         1444    x$fpl$dsub          fz_wm.l(daddsub_clz.o)
    0x00008d28   0x00000056   Code   RO         1454    x$fpl$f2d           fz_wm.l(f2d.o)
    0x00008d7e   0x0000008c   Code   RO         1733    x$fpl$fnaninf       fz_wm.l(fnaninf.o)
    0x00008e0a   0x0000000a   Code   RO         1883    x$fpl$fpinit        fz_wm.l(fpinit.o)
    0x00008e14   0x00000004   Code   RO         1456    x$fpl$printf1       fz_wm.l(printf1.o)
    0x00008e18   0x00000004   Code   RO         1735    x$fpl$printf2       fz_wm.l(printf2.o)
    0x00008e1c   0x00000000   Code   RO         1741    x$fpl$usenofp       fz_wm.l(usenofp.o)
    0x00008e1c   0x000004c0   Data   RO          655    .constdata          ccsbcs.o
    0x000092dc   0x000000ba   Data   RO          674    .constdata          ff.o
    0x00009396   0x00000002   PAD
    0x00009398   0x00000067   Data   RO          723    .constdata          board.o
    0x000093ff   0x00000017   Data   RO          780    .constdata          retarget.o
    0x00009416   0x00000002   PAD
    0x00009418   0x00000254   Data   RO          855    .constdata          mbed.ar(serial_api.o)
    0x0000966c   0x00000067   Data   RO         1068    .constdata          mbed.ar(gpio.o)
    0x000096d3   0x00000001   PAD
    0x000096d4   0x00000068   Data   RO         1098    .constdata          mbed.ar(gpio_api.o)
    0x0000973c   0x00000054   Data   RO         1109    .constdata          mbed.ar(pinmap.o)
    0x00009790   0x0000029c   Data   RO         1154    .constdata          mbed.ar(spi_api.o)
    0x00009a2c   0x00000011   Data   RO         1269    .constdata          c_w.l(__printf_flags_ss_wp.o)
    0x00009a3d   0x00000003   PAD
    0x00009a40   0x00000008   Data   RO         1558    .constdata          c_w.l(_printf_wctomb.o)
    0x00009a48   0x00000028   Data   RO         1587    .constdata          c_w.l(_printf_hex_int_ll_ptr.o)
    0x00009a70   0x0000000c   Data   RO         1630    .constdata          c_w.l(_monlen.o)
    0x00009a7c   0x00000026   Data   RO         1797    .constdata          c_w.l(_printf_fp_hex.o)
    0x00009aa2   0x00000002   PAD
    0x00009aa4   0x00000094   Data   RO         1808    .constdata          c_w.l(bigflt0.o)
    0x00009b38   0x00000024   Data   RO          548    .constdata__ZTV12FATDirHandle  fatdirhandle.o
    0x00009b5c   0x00000040   Data   RO          319    .constdata__ZTV12SDFileSystem  sdfilesystem.o
    0x00009b9c   0x0000002c   Data   RO          510    .constdata__ZTV13FATFileHandle  fatfilehandle.o
    0x00009bc8   0x00000040   Data   RO          446    .constdata__ZTV13FATFileSystem  fatfilesystem.o
    0x00009c08   0x0000002c   Data   RO          826    .constdata__ZTVN4mbed10FileHandleE  retarget.o
    0x00009c34   0x00000014   Data   RO         1052    .constdata__ZTVN4mbed10TimerEventE  mbed.ar(TimerEvent.o)
    0x00009c48   0x00000024   Data   RO          904    .constdata__ZTVN4mbed14FileSystemLikeE  mbed.ar(FileSystemLike.o)
    0x00009c6c   0x00000014   Data   RO         1013    .constdata__ZTVN4mbed3SPIE  mbed.ar(SPI.o)
    0x00009c80   0x00000014   Data   RO          983    .constdata__ZTVN4mbed6TickerE  mbed.ar(Ticker.o)
    0x00009c94   0x00000010   Data   RO         1193    .constdata__ZTVN4mbed8FileBaseE  mbed.ar(FileBase.o)
    0x00009ca4   0x00000024   Data   RO          556    .constdata__ZTVN4mbed9DirHandleE  fatdirhandle.o
    0x00009cc8   0x00000201   Data   RO            6    .conststring        main.o
    0x00009ec9   0x00000003   PAD
    0x00009ecc   0x00000020   Data   RO         2005    Region$$Table       anon$$obj.o
    0x00009eec   0x0000001c   Data   RO         1850    locale$$data        c_w.l(lc_numeric_c.o)
    0x00009f08   0x00000110   Data   RO         1967    locale$$data        c_w.l(lc_ctype_c.o)
    0x0000a018   0x00000004   Data   RO            8    .init_array         main.o
    0x0000a01c   0x00000000   Data   RO         1324    .init_array         c_w.l(init_aeabi.o)


    Execution Region RW_IRAM1 (Base: 0x100000e8, Size: 0x000006b8, Max: 0x0000ff18, ABSOLUTE)

    Base Addr    Size         Type   Attr      Idx    E Section Name        Object

    0x100000e8   0x00000018   Data   RW            7    .data               main.o
    0x10000100   0x00000004   Data   RW          429    .data               fatfilesystem.o
    0x10000104   0x00000006   Data   RW          675    .data               ff.o
    0x1000010a   0x00000002   PAD
    0x1000010c   0x00000010   Data   RW          714    .data               system_LPC407x_8x_177x_8x.o
    0x1000011c   0x00000010   Data   RW          856    .data               mbed.ar(serial_api.o)
    0x1000012c   0x00000004   Data   RW         1004    .data               mbed.ar(SPI.o)
    0x10000130   0x00000004   Data   RW         1135    .data               mbed.ar(us_ticker.o)
    0x10000134   0x00000004   Data   RW         1182    .data               mbed.ar(FileBase.o)
    0x10000138   0x00000008   Data   RW         1220    .data               mbed.ar(us_ticker_api.o)
    0x10000140   0x00000004   Data   RW         1286    .data               c_w.l(stdio_streams.o)
    0x10000144   0x00000004   Data   RW         1287    .data               c_w.l(stdio_streams.o)
    0x10000148   0x00000004   Data   RW         1288    .data               c_w.l(stdio_streams.o)
    0x1000014c   0x00000004   Data   RW         1921    .data               c_w.l(heapauxa.o)
    0x10000150   0x000002c0   Zero   RW            5    .bss                main.o
    0x10000410   0x00000200   Zero   RW          673    .bss                ff.o
    0x10000610   0x00000040   Zero   RW          779    .bss                retarget.o
    0x10000650   0x00000054   Zero   RW         1283    .bss                c_w.l(stdio_streams.o)
    0x100006a4   0x00000054   Zero   RW         1284    .bss                c_w.l(stdio_streams.o)
    0x100006f8   0x00000054   Zero   RW         1285    .bss                c_w.l(stdio_streams.o)
    0x1000074c   0x0000002c   Zero   RW         1317    .bss                c_w.l(localtime.o)
    0x10000778   0x00000004   Zero   RW         1468    .bss                c_w.l(rt_new_handler_addr.o)
    0x1000077c   0x00000004   Zero   RW         1473    .bss                c_w.l(rt_ddtor_pointer_addr.o)
    0x10000780   0x00000004   Zero   RW         1763    .bss                c_w.l(rt_heap_descriptor.o)
    0x10000784   0x00000014   Zero   RW         1768    .bss                c_w.l(rt_locale.o)
    0x10000798   0x00000004   Zero   RW         1894    .bss                c_w.l(rt_errno_addr.o)
    0x1000079c   0x00000004   Zero   RW         1955    .bss                c_w.l(rt_eh_globals_addr.o)


    Execution Region RW_IRAM2 (Base: 0x20000000, Size: 0x00000000, Max: 0x00004000, ABSOLUTE)

    **** No section assigned to this execution region ****


    Execution Region RW_IRAM3 (Base: 0x20004000, Size: 0x00000000, Max: 0x00004000, ABSOLUTE)

    **** No section assigned to this execution region ****



  Load Region LR_IROM2 (Base: 0x28000000, Size: 0x00000000, Max: 0x01000000, ABSOLUTE)

    Execution Region ER_IROM2 (Base: 0x28000000, Size: 0x00000000, Max: 0x01000000, ABSOLUTE)

    **** No section assigned to this execution region ****


==============================================================================

Image component sizes


      Code (inc. data)   RO Data    RW Data    ZI Data      Debug   Object Name

       264          6        103          0          0        124   board.o
       128         12       1216          0          0       4417   ccsbcs.o
       104          6          0          0          0        132   cmsis_nvic.o
       648        226          0          0          0       4390   diskio.o
       158          8         72          0          0       5921   fatdirhandle.o
       484        142         44          0          0       8672   fatfilehandle.o
       862        242         64          4          0      10362   fatfilesystem.o
     10648        130        186          6        512      28583   ff.o
       500        184        517         24        704      48908   main.o
       752         72         67          0         64       1512   retarget.o
      2606        604         64          0          0      18612   sdfilesystem.o
        40         12        228          0          0        276   startup_LPC407x_8x_177x_8x.o
        28          4          0          0          0        128   sys.o
         4          0          0          0          0        116   sys_helper.o
       744         36          0         16          0        268   system_LPC407x_8x_177x_8x.o

    ----------------------------------------------------------------------
     17974       1684       2600         52       1280     132421   Object Totals
         0          0         32          0          0          0   (incl. Generated)
         4          0          7          2          0          0   (incl. Padding)

    ----------------------------------------------------------------------

      Code (inc. data)   RO Data    RW Data    ZI Data      Debug   Library Member Name

        60          8          0          0          0         84   __0sscanf.o
        20          0          0          0          0         84   __2fprintf.o
        24          4          0          0          0         84   __2printf.o
        44          6          0          0          0         84   __2sprintf.o
         8          0          0          0          0         68   __main.o
       392          4         17          0          0         92   __printf_flags_ss_wp.o
        14          0          0          0          0         68   __printf_wp.o
        52          8          0          0          0          0   __scatter.o
        26          0          0          0          0          0   __scatter_copy.o
        28          0          0          0          0          0   __scatter_zi.o
        28          0          0          0          0         68   _chval.o
         0          0         12          0          0          0   _monlen.o
         6          0          0          0          0          0   _printf_a.o
         6          0          0          0          0          0   _printf_c.o
        44          0          0          0          0        108   _printf_char.o
        48          6          0          0          0         96   _printf_char_common.o
        36          4          0          0          0         80   _printf_char_file.o
        40          0          0          0          0         68   _printf_charcount.o
         6          0          0          0          0          0   _printf_d.o
       116         16          0          0          0         92   _printf_dec.o
         6          0          0          0          0          0   _printf_e.o
         6          0          0          0          0          0   _printf_f.o
      1046          0          0          0          0        216   _printf_fp_dec.o
       760         10         38          0          0        100   _printf_fp_hex.o
       128         16          0          0          0         84   _printf_fp_infnan.o
         6          0          0          0          0          0   _printf_g.o
       148          4         40          0          0        160   _printf_hex_int_ll_ptr.o
         6          0          0          0          0          0   _printf_i.o
       178          0          0          0          0         88   _printf_intcommon.o
        10          0          0          0          0          0   _printf_l.o
         6          0          0          0          0          0   _printf_lc.o
        10          0          0          0          0          0   _printf_ll.o
         6          0          0          0          0          0   _printf_lld.o
         6          0          0          0          0          0   _printf_lli.o
         6          0          0          0          0          0   _printf_llo.o
         6          0          0          0          0          0   _printf_llu.o
         6          0          0          0          0          0   _printf_llx.o
       120         16          0          0          0         92   _printf_longlong_dec.o
         6          0          0          0          0          0   _printf_ls.o
         6          0          0          0          0          0   _printf_n.o
         6          0          0          0          0          0   _printf_o.o
       112          8          0          0          0        124   _printf_oct_int_ll.o
         6          0          0          0          0          0   _printf_p.o
        78          0          0          0          0        108   _printf_pad.o
         0          0          0          0          0          0   _printf_percent.o
         4          0          0          0          0          0   _printf_percent_end.o
         6          0          0          0          0          0   _printf_s.o
        82          0          0          0          0         80   _printf_str.o
        36          0          0          0          0         84   _printf_truncate.o
         6          0          0          0          0          0   _printf_u.o
        44          0          0          0          0        108   _printf_wchar.o
       188          6          8          0          0         92   _printf_wctomb.o
         6          0          0          0          0          0   _printf_x.o
       876          4          0          0          0        100   _scanf.o
       332          0          0          0          0         96   _scanf_int.o
        64          0          0          0          0         84   _sgetc.o
        10          0          0          0          0         68   _sputc.o
        64          0          0          0          0         92   _wcrtomb.o
        16          0          0          0          0         72   abort.o
       216          4        148          0          0         96   bigflt0.o
      1910        128          0          0          0        672   btod.o
        10          0          0          0          0         68   c89vfprintf.o
        48         34          0          0          0         76   defsig_abrt_inner.o
        14          0          0          0          0         80   defsig_abrt_outer.o
        10          0          0          0          0         68   defsig_exit.o
        50          0          0          0          0         88   defsig_general.o
        48         34          0          0          0         76   defsig_pvfn_inner.o
        14          0          0          0          0         80   defsig_pvfn_outer.o
        80         58          0          0          0         76   defsig_rtmem_inner.o
        14          0          0          0          0         80   defsig_rtmem_outer.o
        52         38          0          0          0         76   defsig_rtred_inner.o
        14          0          0          0          0         80   defsig_rtred_outer.o
        76          0          0          0          0         88   fclose.o
         8          0          0          0          0         68   ferror.o
       100          4          0          0          0        120   fflush.o
       470          0          0          0          0         88   flsbuf.o
       236          4          0          0          0        128   fopen.o
        26          0          0          0          0         68   fputc.o
       248          6          0          0          0         84   fseek.o
        66          0          0          0          0         76   ftell.o
        94          0          0          0          0         80   h1_alloc.o
        52          0          0          0          0         68   h1_extend.o
        78          0          0          0          0         80   h1_free.o
        14          0          0          0          0         84   h1_init.o
        80          6          0          4          0         96   heapauxa.o
         4          0          0          0          0        136   hguard.o
         0          0          0          0          0          0   indicate_semi.o
        36         10          0          0          0         80   init_aeabi.o
       138          0          0          0          0        168   init_alloc.o
       312         46          0          0          0        112   initio.o
        18          0          0          0          0         76   isspace.o
        44         10        272          0          0         76   lc_ctype_c.o
        44         10         28          0          0         76   lc_numeric_c.o
         2          0          0          0          0          0   libinit.o
        50          0          0          0          0          0   libinit2.o
         6          0          0          0          0          0   libshutdown2.o
       138          0          0          0          0         80   lludiv10.o
        12          6          0          0         44         68   localtime.o
       164          6          0          0          0         80   localtime_internal.o
         0          0          0          0          0          0   maybetermalloc1.o
       420         10          0          0          0        128   mktime.o
        16          4          0          0          0         76   rt_ctype_table.o
         8          4          0          0          4         68   rt_ddtor_pointer_addr.o
         8          4          0          0          4         68   rt_eh_globals_addr.o
         8          4          0          0          4         68   rt_errno_addr.o
         8          4          0          0          4         68   rt_heap_descriptor.o
         8          4          0          0         20         68   rt_locale.o
        78          0          0          0          0         80   rt_memclr_w.o
       138          0          0          0          0         68   rt_memcpy_v6.o
       100          0          0          0          0         80   rt_memcpy_w.o
       122          0          0          0          0         80   rt_memmove_w.o
         8          4          0          0          4         68   rt_new_handler_addr.o
         0          0          0          0          0          0   rtentry.o
        12          0          0          0          0          0   rtentry2.o
         6          0          0          0          0          0   rtentry4.o
        44          8          0          0          0         84   scanf_char.o
        70          0          0          0          0         80   setvbuf.o
       240          6          0          0          0        156   stdio.o
         0          0          0         12        252          0   stdio_streams.o
       128          0          0          0          0         68   strcmpv7m.o
        62          0          0          0          0         76   strlen.o
       150          0          0          0          0         80   strncmp.o
        12          4          0          0          0         68   sys_exit.o
        14          0          0          0          0         76   sys_wrch.o
         2          0          0          0          0         68   use_no_semi.o
        10          0          0          0          0         68   vfprintf.o
        50          0          0          0          0         84   aeabi_atexit.o
        80         12          0          0          0        104   arm_exceptions_globs.o
        60          0          0          0          0        108   arm_exceptions_mem.o
        26          0          0          0          0         76   arm_exceptions_terminate.o
         4          0          0          0          0         68   arm_newhandler_noexceptions.o
        66          0          0          0          0         84   cxa_finalize.o
         8          0          0          0          0         76   delete.o
        40          6          0          0          0         76   new.o
         6          0          0          0          0         68   pure_virt.o
       826         16          0          0          0        492   daddsub_clz.o
        24          0          0          0          0        116   dcmpi.o
        94          4          0          0          0        140   dfix.o
       120          4          0          0          0        140   dleqf.o
       156          4          0          0          0        140   dnaninf.o
        12          0          0          0          0        116   dretinf.o
       108          0          0          0          0        128   drleqf.o
        86          4          0          0          0        132   f2d.o
       140          4          0          0          0        132   fnaninf.o
        10          0          0          0          0        116   fpinit.o
         4          0          0          0          0        116   printf1.o
         4          0          0          0          0        116   printf2.o
         0          0          0          0          0          0   usenofp.o
       280         28          0          0          0        156   floor.o
        48          0          0          0          0        124   fpclassify.o
       152         24         16          4          0        476   FileBase.o
       154          0          0          0          0        728   FilePath.o
        30          6         36          0          0        356   FileSystemLike.o
        42          0          0          0          0        348   FunctionPointer.o
       160         16         20          4          0        392   SPI.o
       136          6         20          0          0        520   Ticker.o
        84         12         20          0          0        604   TimerEvent.o
        80         56          0          0          0        128   assert.o
        24          4          0          0          0        128   error.o
        32          8          0          0          0        120   exit.o
        68          4        103          0          0        136   gpio.o
       156         30        104          0          0        372   gpio_api.o
       148         56         84          0          0        256   pinmap.o
       236         78          0          0          0        384   pinmap_common.o
       172         26          0          0          0        484   rtc_api.o
        34          0          0          0          0        128   rtc_time.o
       806         62        596         16          0        532   serial_api.o
       782         70        668          0          0        596   spi_api.o
       240         64          0          4          0        596   us_ticker.o
       224         20          0          8          0        512   us_ticker_api.o
        52          0          0          0          0        256   wait_api.o

    ----------------------------------------------------------------------
     18178       1204       2236         52        336      19324   Library Totals
        40          0          6          0          0          0   (incl. Padding)

    ----------------------------------------------------------------------

      Code (inc. data)   RO Data    RW Data    ZI Data      Debug   Library Name

     12074        580        563         16        336       8364   c_w.l
       340         18          0          0          0        744   cpprt_w.l
      1584         36          0          0          0       1884   fz_wm.l
       328         28          0          0          0        280   m_wm.l
      3812        542       1667         36          0       8052   mbed.ar

    ----------------------------------------------------------------------
     18178       1204       2236         52        336      19324   Library Totals

    ----------------------------------------------------------------------

==============================================================================


      Code (inc. data)   RO Data    RW Data    ZI Data      Debug   

     36152       2888       4836        104       1616     134941   Grand Totals
     36152       2888       4836        104       1616     134941   ELF Image Totals
     36152       2888       4836        104          0          0   ROM Totals

==============================================================================

    Total RO  Size (Code + RO Data)                40988 (  40.03kB)
    Total RW  Size (RW Data + ZI Data)              1720 (   1.68kB)
    Total ROM Size (Code + RO Data + RW Data)      41092 (  40.13kB)

==============================================================================

